Archive member included because of file (symbol)

../bwlib\liblimage.a(imageL_encode.o)
                              ./Debug/taskPhotoEncode.c.o (imageEncodeQuadStart)
../bwlib\libeffect.a(user_effect.o)
                              ./Debug/multimedia_user_media.c.o (warpHandle)
../bwlib\libmp3.a(mp3_decode_api.o)
                              ./Debug/taskAudioPlayer.c.o (mp3_dac_memInit)
../bwlib\libmp3.a(decoder.o)  ../bwlib\libmp3.a(mp3_decode_api.o) (mad_decoder_init)
../bwlib\libmp3.a(stream.o)   ../bwlib\libmp3.a(decoder.o) (mad_stream_init)
../bwlib\libmp3.a(synth.o)    ../bwlib\libmp3.a(decoder.o) (mad_synth_init)
../bwlib\libmp3.a(bit.o)      ../bwlib\libmp3.a(stream.o) (mad_bit_init)
../bwlib\libmp3.a(frame.o)    ../bwlib\libmp3.a(decoder.o) (mad_frame_finish)
../bwlib\libmp3.a(layer12.o)  ../bwlib\libmp3.a(frame.o) (mad_layer_I)
../bwlib\libmp3.a(timer.o)    ../bwlib\libmp3.a(frame.o) (mad_timer_set)
../bwlib\libmp3.a(layer3.o)   ../bwlib\libmp3.a(frame.o) (mad_layer_III)
../bwlib\libmp3.a(huffman.o)  ../bwlib\libmp3.a(layer3.o) (mad_huff_pair_table)
../bwlib\libsd.a(ax32xx_sd.o)
                              ./Debug/src_hal_sd.c.o (ax32xx_sd0Init)
../bwlib\libavi.a(aviEncoder.o)
                              ./Debug/video_video_record.c.o (aviEncodeInit)
../bwlib\libavi.a(encoder_std.o)
                              ../bwlib\libavi.a(aviEncoder.o) (avi_encoder_std)
../bwlib\libavi.a(encoder_odml.o)
                              ../bwlib\libavi.a(aviEncoder.o) (avi_odmlAddoffset)
../bwlib\libavi.a(aviDecoder.o)
                              ./Debug/video_video_playback.c.o (aviDecodeInit)
../bwlib\libavi.a(decoder_std.o)
                              ../bwlib\libavi.a(aviDecoder.o) (avi_standard)
../bwlib\libavi.a(decoder_odml.o)
                              ../bwlib\libavi.a(aviDecoder.o) (avi_opendml)
../bwlib\libfs.a(fs.o)        ./Debug/taskSysScanDevice.c.o (fs_nodeinit)
../bwlib\libfs.a(diskio.o)    ./Debug/main.c.o (fs_init)
../bwlib\libfs.a(ff.o)        ../bwlib\libfs.a(fs.o) (clst2sect)
../bwlib\libfs.a(ffunicode.o)
                              ../bwlib\libfs.a(ff.o) (ff_uni2oem)
C:/MinGW-4.7.1/or1k-elf/lib/no-delay\libc.a(lib_a-memcmp.o)
                              ../bwlib\libfs.a(ff.o) (memcmp)
C:/MinGW-4.7.1/or1k-elf/lib/no-delay\libc.a(lib_a-memcpy.o)
                              ./Debug/resource_manager.c.o (memcpy)
C:/MinGW-4.7.1/or1k-elf/lib/no-delay\libc.a(lib_a-memmove.o)
                              ./Debug/game_tetris.c.o (memmove)
C:/MinGW-4.7.1/or1k-elf/lib/no-delay\libc.a(lib_a-memset.o)
                              ./Debug/main.c.o (memset)
C:/MinGW-4.7.1/or1k-elf/lib/no-delay\libc.a(lib_a-strcasecmp.o)
                              ./Debug/resource_manager.c.o (strcasecmp)
C:/MinGW-4.7.1/or1k-elf/lib/no-delay\libc.a(lib_a-strcat.o)
                              ./Debug/resource_manager.c.o (strcat)
C:/MinGW-4.7.1/or1k-elf/lib/no-delay\libc.a(lib_a-strchr.o)
                              ../bwlib\libfs.a(ff.o) (strchr)
C:/MinGW-4.7.1/or1k-elf/lib/no-delay\libc.a(lib_a-strcmp.o)
                              ./Debug/resource_manager.c.o (strcmp)
C:/MinGW-4.7.1/or1k-elf/lib/no-delay\libc.a(lib_a-strcpy.o)
                              ./Debug/resource_manager.c.o (strcpy)
C:/MinGW-4.7.1/or1k-elf/lib/no-delay\libc.a(lib_a-strlen.o)
                              ./Debug/resource_manager.c.o (strlen)
C:/MinGW-4.7.1/or1k-elf/lib/no-delay\libc.a(lib_a-strncmp.o)
                              ./Debug/resource_manager.c.o (strncmp)
C:/MinGW-4.7.1/or1k-elf/lib/no-delay\libc.a(lib_a-strstr.o)
                              ../bwlib\liblimage.a(imageL_encode.o) (strstr)
C:/MinGW-4.7.1/or1k-elf/lib/no-delay\libc.a(lib_a-ctype_.o)
                              C:/MinGW-4.7.1/or1k-elf/lib/no-delay\libc.a(lib_a-strcasecmp.o) (__ctype_ptr__)
C:/MinGW-4.7.1/or1k-elf/lib/no-delay\libc.a(lib_a-memchr.o)
                              C:/MinGW-4.7.1/or1k-elf/lib/no-delay\libc.a(lib_a-strstr.o) (memchr)
C:/MinGW-4.7.1/lib/gcc/or1k-elf/4.9.1/no-delay\libgcc.a(_muldi3.o)
                              ../bwlib\libmp3.a(mp3_decode_api.o) (__muldi3)
C:/MinGW-4.7.1/lib/gcc/or1k-elf/4.9.1/no-delay\libgcc.a(_udivdi3.o)
                              ../bwlib\libmp3.a(mp3_decode_api.o) (__udivdi3)
C:/MinGW-4.7.1/lib/gcc/or1k-elf/4.9.1/no-delay\libgcc.a(addsf3.o)
                              ../bwlib\libeffect.a(user_effect.o) (__addsf3)
C:/MinGW-4.7.1/lib/gcc/or1k-elf/4.9.1/no-delay\libgcc.a(divsf3.o)
                              ../bwlib\libeffect.a(user_effect.o) (__divsf3)
C:/MinGW-4.7.1/lib/gcc/or1k-elf/4.9.1/no-delay\libgcc.a(eqsf2.o)
                              ../bwlib\libeffect.a(user_effect.o) (__eqsf2)
C:/MinGW-4.7.1/lib/gcc/or1k-elf/4.9.1/no-delay\libgcc.a(gesf2.o)
                              ../bwlib\libeffect.a(user_effect.o) (__gtsf2)
C:/MinGW-4.7.1/lib/gcc/or1k-elf/4.9.1/no-delay\libgcc.a(mulsf3.o)
                              ../bwlib\libeffect.a(user_effect.o) (__mulsf3)
C:/MinGW-4.7.1/lib/gcc/or1k-elf/4.9.1/no-delay\libgcc.a(fixunssfsi.o)
                              ../bwlib\libeffect.a(user_effect.o) (__fixunssfsi)
C:/MinGW-4.7.1/lib/gcc/or1k-elf/4.9.1/no-delay\libgcc.a(floatsisf.o)
                              ../bwlib\libeffect.a(user_effect.o) (__floatsisf)
C:/MinGW-4.7.1/lib/gcc/or1k-elf/4.9.1/no-delay\libgcc.a(floatunsisf.o)
                              ../bwlib\libeffect.a(user_effect.o) (__floatunsisf)
C:/MinGW-4.7.1/lib/gcc/or1k-elf/4.9.1/no-delay\libgcc.a(__udivsi3.o)
                              C:/MinGW-4.7.1/lib/gcc/or1k-elf/4.9.1/no-delay\libgcc.a(_udivdi3.o) (__udivsi3)
C:/MinGW-4.7.1/lib/gcc/or1k-elf/4.9.1/no-delay\libgcc.a(__umodsi3.o)
                              C:/MinGW-4.7.1/lib/gcc/or1k-elf/4.9.1/no-delay\libgcc.a(_udivdi3.o) (__umodsi3)
C:/MinGW-4.7.1/lib/gcc/or1k-elf/4.9.1/no-delay\libgcc.a(_clz.o)
                              C:/MinGW-4.7.1/lib/gcc/or1k-elf/4.9.1/no-delay\libgcc.a(_udivdi3.o) (__clz_tab)
C:/MinGW-4.7.1/lib/gcc/or1k-elf/4.9.1/no-delay\libgcc.a(_clzsi2.o)
                              C:/MinGW-4.7.1/lib/gcc/or1k-elf/4.9.1/no-delay\libgcc.a(addsf3.o) (__clzsi2)

Allocating common symbols
Common symbol       size              file

fp_jpegdc_ldone_hal
                    0x4               ./Debug/mjpeg_ax32xx_mjpeg.c.o
food                0x4               ./Debug/game_snake.c.o
fp_tmnow            0x4               ../bwlib\libfs.a(diskio.o)
fp_storage_wr       0x4               ../bwlib\libfs.a(diskio.o)
fp11_epout_isr_hal  0x4               ./Debug/main.c.o
block_cnt           0x4               ./Debug/game_block.c.o
enemy_bullet_c      0xa0              ./Debug/game_plane.c.o
jpegCache           0x4               ./Debug/multimedia_user_media.c.o
usb_varm            0x1c              ./Debug/main.c.o
WAV_TYPE_E          0x4               ./Debug/main.c.o
fp_uvc_off_hal      0x4               ./Debug/dusb_hal_usb_dev_enum.c.o
dec_lheight         0x2               ./Debug/main.c.o
SysCtrl             0x74              ./Debug/main.c.o
audsIStack          0xc               ./Debug/multimedia_user_media.c.o
jpegBStack          0x8               ./Debug/multimedia_user_media.c.o
fp_epout_isr_hal    0x4               ./Debug/main.c.o
tempFileName2       0x1c              ./Debug/taskVideoRecord.c.o
audioCache          0x4               ./Debug/multimedia_user_media.c.o
fp11_host_connect_hal
                    0x4               ./Debug/src_ax32xx_usb.c.o
fp_uvc_on_hal       0x4               ./Debug/dusb_hal_usb_dev_enum.c.o
jpeg_rev_buf        0x48              ./Debug/src_hal_mjpeg.c.o
pcm_buf             0x4               ./Debug/src_hal_auadc.c.o
uac_onflg           0x1               ./Debug/dusb_hal_usb_dev_enum.c.o
aviIdx1CacheB       0x4               ./Debug/multimedia_user_media.c.o
mjpegEncCtrl        0xe80             ./Debug/main.c.o
scsi                0x18              ./Debug/dusb_hal_usb_msc.c.o
mp3_unicode_buf     0x4               ./Debug/res_unicode_font.c.o
HAL_CFG_MJPEG_WIDTH
                    0x4               ./Debug/main.c.o
tempFileName1       0x1c              ./Debug/taskVideoRecord.c.o
usb_rqu             0x8               ./Debug/dusb_hal_usb_dev_enum.c.o
version_str         0x20              ./Debug/logo.c.o
fp_disk_rd          0x4               ./Debug/dusb_hal_usb_msc.c.o
ball_num            0x4               ./Debug/game_block.c.o
sofcnt              0x2               ./Debug/src_ax32xx_usb.c.o
UacSampFreq         0x3               ./Debug/dusb_hal_usb_uac.c.o
audsTStack          0xc               ./Debug/multimedia_user_media.c.o
power_up_sum        0x1               ./Debug/game_block.c.o
fp_disk_cap         0x4               ./Debug/dusb_hal_usb_msc.c.o
ptgl                0x4               ./Debug/dusb_hal_usb_uvc.c.o
fp_uac_on_hal       0x4               ./Debug/dusb_hal_usb_dev_enum.c.o
rtcSecondISR        0x4               ./Debug/src_ax32xx_rtc.c.o
mp3_file            0x18              ../bwlib\libmp3.a(mp3_decode_api.o)
snake_p             0x4               ./Debug/game_snake.c.o
my_Plane_c          0x10              ./Debug/game_plane.c.o
fp_host_remove_hal  0x4               ./Debug/src_ax32xx_usb.c.o
yuv_add_s           0x28              ./Debug/src_hal_custom_yuv.c.o
dec_lwidth          0x2               ./Debug/main.c.o
ax32xx_lcdISR       0x14              ./Debug/lcd_ax32xx_lcd.c.o
fp11_host_remove_hal
                    0x4               ./Debug/src_ax32xx_usb.c.o
fp_disk_online      0x4               ./Debug/dusb_hal_usb_msc.c.o
jpeg_photo_cache    0xf0              ./Debug/main.c.o
fp_usb_bulk_tx      0x4               ./Debug/dusb_hal_usb_msc.c.o
fp_disk_stop        0x4               ./Debug/dusb_hal_usb_msc.c.o
rtcAlamISR          0x4               ./Debug/src_ax32xx_rtc.c.o
HAL_CFG_MJPEG_HEIGHT
                    0x4               ./Debug/main.c.o
head                0x4               ./Debug/game_snake.c.o
uaconflg            0x1               ./Debug/dusb_hal_usb_uac.c.o
fp_usb_bulk_rx      0x4               ./Debug/dusb_hal_usb_msc.c.o
vidsBStack          0x14              ./Debug/multimedia_user_media.c.o
block_scaler_tab    0x60              ./Debug/mjpeg_ax32xx_mjpeg.c.o
jpegIStack          0x8               ./Debug/multimedia_user_media.c.o
usb_dev             0x1c              ./Debug/dusb_hal_usb_dev_enum.c.o
fp_disk_busy        0x4               ./Debug/dusb_hal_usb_msc.c.o
devSensor_Cmd       0x60              ./Debug/cmos_sensor_cmos_sensor.c.o
mscbusy             0x1               ./Debug/src_ax32xx_usb.c.o
fp_usb_isr          0x4               ./Debug/src_ax32xx_int.c.o
fp_uac_unit_ctl_hal
                    0x4               ./Debug/main.c.o
XOSNesting          0x1               ./Debug/xos_xos.c.o
fp_f_write          0x4               ../bwlib\libfs.a(diskio.o)
audsBStack          0xc               ./Debug/multimedia_user_media.c.o
fp_storage_sta      0x4               ../bwlib\libfs.a(diskio.o)
smph_dmacopy        0x1               ./Debug/src_ax32xx_sys.c.o
snser               0x14              ./Debug/src_hal_csi.c.o
enemy_Plane_c       0xa0              ./Debug/game_plane.c.o
pSetReqCallback     0x4               ./Debug/dusb_hal_usb_dev_enum.c.o
power_up_rand_list  0x48              ./Debug/game_block.c.o
fp_UacHandleToStreaming
                    0x4               ./Debug/main.c.o
fp_usb_ep0_tx       0x4               ./Debug/dusb_hal_usb_uvc.c.o
thumbnailUVBuffer   0x4               ./Debug/multimedia_user_media.c.o
power_up_num        0x4               ./Debug/game_block.c.o
jump_process_type   0x1               ./Debug/userInterface.c.o
gameEntry           0x4               ./Debug/taskGame.c.o
fp_uac_off_hal      0x4               ./Debug/dusb_hal_usb_dev_enum.c.o
fp_storage_rd       0x4               ../bwlib\libfs.a(diskio.o)
game_block_breaker_page_encode
                    0x2               ./Debug/game_block.c.o
game_boundary       0x8               ./Debug/game_block.c.o
javgsize            0x4               ./Debug/mjpeg_ax32xx_mjpeg.c.o
mp3_dec_op          0x4               ../bwlib\libmp3.a(mp3_decode_api.o)
fp_disk_free        0x4               ./Debug/dusb_hal_usb_msc.c.o
UacMuteControl      0x1               ./Debug/dusb_hal_usb_uac.c.o
fp_disk_wr          0x4               ./Debug/dusb_hal_usb_msc.c.o
block_item          0x10              ./Debug/game_block.c.o
fp_uvc_probe_ctl_hal
                    0x4               ./Debug/dusb_hal_usb_uvc.c.o
strHandle           0x4               ./Debug/upgrade.c.o
P_boom              0xa0              ./Debug/game_plane.c.o
speed               0x4               ./Debug/src_hal_sd.c.o
maze_map            0x58              ./Debug/game_maze.c.o
aviIdx1Cache        0x4               ./Debug/multimedia_user_media.c.o
dfm                 0x334             ./Debug/src_hal_lcdframe.c.o
photoQueue          0x50              ./Debug/src_hal_mjpeg.c.o
fp_uvc_unit_ctl_ex_hal
                    0x4               ./Debug/dusb_hal_usb_uvc.c.o
board_move_cnt      0x2               ./Debug/game_block.c.o
EP0WaitForSetReqData
                    0x1               ./Debug/main.c.o
timerISR            0x10              ./Debug/src_ax32xx_timer.c.o
fp_host11_remove_hal
                    0x4               ./Debug/src_ax32xx_usb.c.o
fp_usb11_isr        0x4               ./Debug/src_ax32xx_int.c.o
tempYuvAddr         0x18              ./Debug/src_hal_mjpeg.c.o
fp_host11_connect_hal
                    0x4               ./Debug/src_ax32xx_usb.c.o
progressBar         0x4               ./Debug/upgrade.c.o
devSensor_Ident     0x48              ./Debug/cmos_sensor_cmos_sensor.c.o
csifcnt             0x4               ./Debug/csi_ax32xx_csi.c.o
thumbnailYBuffer    0x4               ./Debug/multimedia_user_media.c.o
wdt_en              0x4               ./Debug/src_ax32xx_wdt.c.o
effect_cnt          0x2               ./Debug/game_block.c.o
vidsIStack          0x14              ./Debug/multimedia_user_media.c.o
fp_usb_iso_tx       0x4               ./Debug/dusb_hal_usb_uvc.c.o
uvc_onflg           0x1               ./Debug/dusb_hal_usb_dev_enum.c.o
board_a             0x10              ./Debug/game_block.c.o
clmt                0x4000            ../bwlib\libfs.a(fs.o)
mp3font             0x8               ./Debug/res_unicode_font.c.o
fp_host_connect_hal
                    0x4               ./Debug/src_ax32xx_usb.c.o
fp_uvc_unit_ctl_hal
                    0x4               ./Debug/dusb_hal_usb_uvc.c.o
fp_storage_init     0x4               ../bwlib\libfs.a(diskio.o)
mediaVideoCtrl      0x88              ./Debug/video_video_record.c.o
UacVolCtrlSettings  0x8               ./Debug/dusb_hal_usb_uac.c.o
mp3_pcm_fifo        0x208             ../bwlib\libmp3.a(mp3_decode_api.o)
MscCmd              0x44              ./Debug/dusb_hal_usb_msc.c.o
mp3_font_group      0x408             ./Debug/res_unicode_font.c.o
my_bullet_c         0xa0              ./Debug/game_plane.c.o
CHANNEL_EXCHANGE_E  0x4               ./Debug/main.c.o
life_num            0x1               ./Debug/game_block.c.o

Memory Configuration

Name             Origin             Length             Attributes
boot             0x01fffc00         0x00000200
ram_boot         0x00000000         0x00005000
ram_user         0x00000000         0x00005000
usbfifo          0x00008000         0x00001000
sdram            0x02000000         0x00200000
exsdram          0x00000000         0x00800000
*default*        0x00000000         0xffffffff

Linker script and memory map

LOAD ./Debug/ax32xx_reset.S.o
LOAD ./Debug/ax32xx_spi_boot_cfg.S.o
LOAD ./Debug/ax32xx_BLDRX32.S.o
LOAD ./Debug/main.c.o
LOAD ./Debug/resource_manager.c.o
LOAD ./Debug/board.c.o
LOAD ./Debug/board_bwv1.c.o
LOAD ./Debug/config.c.o
LOAD ./Debug/display.c.o
LOAD ./Debug/explorer.c.o
LOAD ./Debug/filelist.c.o
LOAD ./Debug/font.c.o
LOAD ./Debug/icon.c.o
LOAD ./Debug/configGetValue.c.o
LOAD ./Debug/configSystem.c.o
LOAD ./Debug/logo.c.o
LOAD ./Debug/menuMovieRec.c.o
LOAD ./Debug/msgDeal.c.o
LOAD ./Debug/msgSysRecommend.c.o
LOAD ./Debug/msgSysUnshielded.c.o
LOAD ./Debug/taskManage.c.o
LOAD ./Debug/taskPhotoEncode.c.o
LOAD ./Debug/taskPhotoEncodeMsg.c.o
LOAD ./Debug/taskPlayBack.c.o
LOAD ./Debug/taskPlayBackMsg.c.o
LOAD ./Debug/taskPowerOff.c.o
LOAD ./Debug/taskSysScanDevice.c.o
LOAD ./Debug/taskUsbDevice.c.o
LOAD ./Debug/taskVideoRecord.c.o
LOAD ./Debug/taskVideoRecordMsg.c.o
LOAD ./Debug/toolFunc.c.o
LOAD ./Debug/uiMenuDateTimeMsg.c.o
LOAD ./Debug/uiMenuDefaultMsg.c.o
LOAD ./Debug/uiMenuDelAllMsg.c.o
LOAD ./Debug/uiMenuDelCurMsg.c.o
LOAD ./Debug/uiMenuFormatMsg.c.o
LOAD ./Debug/uiMenuItemMsg.c.o
LOAD ./Debug/uiMenuOptionMsg.c.o
LOAD ./Debug/uiMenuUsbMsg.c.o
LOAD ./Debug/uiNoFileMsg.c.o
LOAD ./Debug/uiTips1Msg.c.o
LOAD ./Debug/uiTipsMsg.c.o
LOAD ./Debug/uiWin.c.o
LOAD ./Debug/uiMenuVersionMsg.c.o
LOAD ./Debug/taskAudioPlayer.c.o
LOAD ./Debug/taskAudioPlayerMsg.c.o
LOAD ./Debug/taskAudioPlayerRes.c.o
LOAD ./Debug/taskPhotoEncodeRes.c.o
LOAD ./Debug/taskPlayBackRes.c.o
LOAD ./Debug/taskVideoRecordRes.c.o
LOAD ./Debug/uiMenuDateTimeRes.c.o
LOAD ./Debug/uiMenuDefaultRes.c.o
LOAD ./Debug/uiMenuDelAllRes.c.o
LOAD ./Debug/uiMenuDelCurRes.c.o
LOAD ./Debug/uiMenuFormatRes.c.o
LOAD ./Debug/uiMenuItemRes.c.o
LOAD ./Debug/uiMenuOptionRes.c.o
LOAD ./Debug/uiMenuUsbRes.c.o
LOAD ./Debug/uiMenuVersionRes.c.o
LOAD ./Debug/uiNoFileRes.c.o
LOAD ./Debug/uiTips1Res.c.o
LOAD ./Debug/uiTipsRes.c.o
LOAD ./Debug/taskMainMenu.c.o
LOAD ./Debug/taskMainMenuMsg.c.o
LOAD ./Debug/taskMainMenuRes.c.o
LOAD ./Debug/taskSettingMenu.c.o
LOAD ./Debug/userInterface.c.o
LOAD ./Debug/upgrade.c.o
LOAD ./Debug/game_block.c.o
LOAD ./Debug/game_snake.c.o
LOAD ./Debug/game_sokoban.c.o
LOAD ./Debug/game_tetris.c.o
LOAD ./Debug/taskGame.c.o
LOAD ./Debug/taskGameMenu.c.o
LOAD ./Debug/taskGameMenuMsg.c.o
LOAD ./Debug/taskGameMenuRes.c.o
LOAD ./Debug/game_plane.c.o
LOAD ./Debug/game_maze.c.o
LOAD ./Debug/xos_x_cpu.c.o
LOAD ./Debug/xos_xmbox.c.o
LOAD ./Debug/xos_xmsgq.c.o
LOAD ./Debug/xos_xos.c.o
LOAD ./Debug/xos_xwork.c.o
LOAD ./Debug/multimedia_user_media.c.o
LOAD ./Debug/sUI_button.c.o
LOAD ./Debug/sUI_dialog.c.o
LOAD ./Debug/sUI_frameWin.c.o
LOAD ./Debug/sUI_imageIcon.c.o
LOAD ./Debug/sUI_itemManage.c.o
LOAD ./Debug/sUI_menuItem.c.o
LOAD ./Debug/sUI_menuItemEx.c.o
LOAD ./Debug/sUI_menuOption.c.o
LOAD ./Debug/sUI_progressBar.c.o
LOAD ./Debug/sUI_rect.c.o
LOAD ./Debug/sUI_stringIcon.c.o
LOAD ./Debug/sUI_tips.c.o
LOAD ./Debug/sUI_uiAlloc.c.o
LOAD ./Debug/sUI_widget.c.o
LOAD ./Debug/sUI_winManage.c.o
LOAD ./Debug/sUI_memPool.c.o
LOAD ./Debug/sUI_widgetManage.c.o
LOAD ./Debug/src_ax32xx_int.c.o
LOAD ./Debug/src_ax32xx_sys.c.o
LOAD ./Debug/src_ax32xx_dma.c.o
LOAD ./Debug/src_ax32xx_wdt.c.o
LOAD ./Debug/src_ax32xx_gpio.c.o
LOAD ./Debug/src_ax32xx_uart.c.o
LOAD ./Debug/src_ax32xx_timer.c.o
LOAD ./Debug/src_ax32xx_tminf.c.o
LOAD ./Debug/src_ax32xx_spi.c.o
LOAD ./Debug/src_ax32xx_rtc.c.o
LOAD ./Debug/src_ax32xx_iic.c.o
LOAD ./Debug/src_ax32xx_dac.c.o
LOAD ./Debug/src_ax32xx_adc.c.o
LOAD ./Debug/src_ax32xx_auadc.c.o
LOAD ./Debug/src_jpeg_table.c.o
LOAD ./Debug/src_ax32xx_usb.c.o
LOAD ./Debug/src_ax32xx_misc.c.o
LOAD ./Debug/src_ax32xx_pip.c.o
LOAD ./Debug/src_ax32xx_btuart.c.o
LOAD ./Debug/src_ax32xx_crc.c.o
LOAD ./Debug/src_ax32xx_emi.c.o
LOAD ./Debug/src_ax32xx_rotate.c.o
LOAD ./Debug/src_ax32xx_osdcmp.c.o
LOAD ./Debug/src_ax32xx_isp.c.o
LOAD ./Debug/osd_ax32xx_osd.c.o
LOAD ./Debug/csi_ax32xx_csi.c.o
LOAD ./Debug/lcd_ax32xx_lcd.c.o
LOAD ./Debug/mjpeg_ax32xx_mjpeg.c.o
LOAD ./Debug/resource_user_icon.c.o
LOAD ./Debug/resource_user_str.c.o
LOAD ./Debug/src_hal_adc.c.o
LOAD ./Debug/src_hal_csi.c.o
LOAD ./Debug/src_hal_dac.c.o
LOAD ./Debug/src_hal_eeprom.c.o
LOAD ./Debug/src_hal_gpio.c.o
LOAD ./Debug/src_hal_iic.c.o
LOAD ./Debug/src_hal_lcd.c.o
LOAD ./Debug/src_hal_osd.c.o
LOAD ./Debug/src_hal_rtc.c.o
LOAD ./Debug/src_hal_sd.c.o
LOAD ./Debug/src_hal_spi.c.o
LOAD ./Debug/src_hal_timer.c.o
LOAD ./Debug/src_hal_uart.c.o
LOAD ./Debug/src_hal_watermark.c.o
LOAD ./Debug/src_hal_sys.c.o
LOAD ./Debug/src_hal_auadc.c.o
LOAD ./Debug/src_hal_mjpeg.c.o
LOAD ./Debug/src_hal_int.c.o
LOAD ./Debug/src_hal_wdt.c.o
LOAD ./Debug/src_hal_stream.c.o
LOAD ./Debug/src_hal_emi.c.o
LOAD ./Debug/src_hal_osdcmp.c.o
LOAD ./Debug/src_hal_rotate.c.o
LOAD ./Debug/src_hal_lcdframe.c.o
LOAD ./Debug/src_hal_custom_yuv.c.o
LOAD ./Debug/dusb_hal_usb_api.c.o
LOAD ./Debug/dusb_hal_usb_dev_enum.c.o
LOAD ./Debug/dusb_hal_usb_msc.c.o
LOAD ./Debug/dusb_hal_usb_uac.c.o
LOAD ./Debug/dusb_hal_usb_uvc.c.o
LOAD ./Debug/audio_audio_playback.c.o
LOAD ./Debug/audio_audio_record.c.o
LOAD ./Debug/audio_ring_buffer.c.o
LOAD ./Debug/video_video_playback.c.o
LOAD ./Debug/video_video_record.c.o
LOAD ./Debug/image_image_decode.c.o
LOAD ./Debug/image_image_encode.c.o
LOAD ./Debug/wav_alaw.c.o
LOAD ./Debug/wav_imaadpcm.c.o
LOAD ./Debug/wav_pcm.c.o
LOAD ./Debug/wav_ulaw.c.o
LOAD ./Debug/wav_wav.c.o
LOAD ./Debug/stream_stream.c.o
LOAD ./Debug/cmos_sensor_cmos_sensor.c.o
LOAD ./Debug/cmos_sensor_SENSOR_BF3a03.c.o
LOAD ./Debug/cmos_sensor_SENSOR_BF2013.c.o
LOAD ./Debug/cmos_sensor_SENSOR_BF3703.c.o
LOAD ./Debug/cmos_sensor_SENSOR_GC0307.c.o
LOAD ./Debug/cmos_sensor_SENSOR_GC0308.c.o
LOAD ./Debug/cmos_sensor_SENSOR_GC0309.c.o
LOAD ./Debug/cmos_sensor_SENSOR_GC0328.c.o
LOAD ./Debug/cmos_sensor_SENSOR_OV7670.c.o
LOAD ./Debug/cmos_sensor_SENSOR_SP0838.c.o
LOAD ./Debug/cmos_sensor_SENSOR_SP0A18.c.o
LOAD ./Debug/cmos_sensor_SENSOR_GC0329.c.o
LOAD ./Debug/cmos_sensor_SENSOR_SIV100B.c.o
LOAD ./Debug/tft_lcd_lcd_mcu_st7789P3.c.o
LOAD ./Debug/cmos_sensor_SENSOR_BF20A6.c.o
LOAD ./Debug/tft_lcd_lcd_mcu_st7789.c.o
LOAD ./Debug/tft_lcd_tft_lcd.c.o
LOAD ./Debug/tft_lcd_lcd_mcu_ili9328.c.o
LOAD ./Debug/tft_lcd_lcd_mcu_st7789v.c.o
LOAD ./Debug/tft_lcd_lcd_mcu_hx8352c.c.o
LOAD ./Debug/tft_lcd_lcd_mcu_9225G.c.o
LOAD ./Debug/tft_lcd_lcd_mcu_nv3030b.c.o
LOAD ./Debug/nvfs_nvfs.c.o
LOAD ./Debug/Maxlib_max_user.c.o
LOAD ./Debug/Maxlib_uiDraw.c.o
LOAD ./Debug/std_misc.c.o
LOAD ./Debug/std_std_math.c.o
LOAD ./Debug/std_str.c.o
LOAD ./Debug/res_ascii.c.o
LOAD ./Debug/res_ascii_default.c.o
LOAD ./Debug/res_ascii_default_draw.c.o
LOAD ./Debug/res_R.c.o
LOAD ./Debug/res_R_icon.c.o
LOAD ./Debug/res_R_string.c.o
LOAD ./Debug/res_unicode_font.c.o
LOAD ./Debug/res_ascii_num3.c.o
LOAD ./Debug/res_ascii_num3_draw.c.o
LOAD ../bwlib\liblimage.a
LOAD ../bwlib\libeffect.a
LOAD ../bwlib\libmp3.a
LOAD ../bwlib\libsd.a
LOAD ../bwlib\libavi.a
LOAD ../bwlib\libfs.a
LOAD C:/MinGW-4.7.1/or1k-elf/lib/no-delay\libc.a
LOAD C:/MinGW-4.7.1/lib/gcc/or1k-elf/4.9.1/no-delay\libgcc.a

.bootsec        0x01fffc00      0x200 load address 0x00000000
 *(.bootsec)
 .bootsec       0x01fffc00      0x200 ./Debug/ax32xx_BLDRX32.S.o
                0x01fffc10                hex
                0x01fffc10                .hex
                0x01fffdd8                .bootsect

.exception      0x00000000     0x1e3c load address 0x00000200
                0x00000000                _exception_vma = .
 *(.vector)
 .vector        0x00000000      0x3d0 ./Debug/ax32xx_reset.S.o
                0x00000304                _start
                0x00000340                _step_in
                0x00000384                _step_out
 *(.vector.text)
 .vector.text   0x000003d0     0x1668 ./Debug/src_ax32xx_int.c.o
                0x00000514                _rtcRamWrite
                0x000005bc                _rtcRamRead
                0x00000670                my_putchar
                0x00000684                exception_uart_puts
                0x00000698                my_memset
                0x000006c8                exception_init
                0x0000076c                ax32xx_vddrtcCalculate
                0x00000798                dllcon_init
                0x00000944                sdram_init
                0x00000a14                adcRead
                0x00000a6c                adcConverStart
                0x00000a90                adcSetBaudrate
                0x00000ac0                sysClkSet
                0x00000b1c                adcEnable
                0x00000b84                adcGetChannel
                0x00000bbc                sdram_tuning_check_2
                0x00000d3c                _sdr_tuning2_conifg_set
                0x00000d5c                crc_cal
                0x00000dd0                sdram_clock_tune
                0x000017b0                exception
                0x00001a1c                exception_trigger
 *(.vector.data)
 .vector.data   0x00001a38      0x100 ./Debug/ax32xx_reset.S.o
                0x00001a38                _step_data
 .vector.data   0x00001b38      0x304 ./Debug/src_ax32xx_int.c.o
                0x00001b38                tune_values
                0x00001cb8                tune_by
                0x00001cc4                tune_tab_2_dll
                0x00001cd4                tune_tab_1_dll
                0x00001ce4                tune_tab_2_clk
                0x00001d04                tune_tab_1_clk
                0x00001d24                tuning_test_addr
                0x00001da4                tuning_test_data
                0x00001e24                SDRTUN2_CON
                0x00001e2c                sdr_tune_source
                0x00001e30                chip_vision

.ram            0x00001e3c     0x2660 load address 0x0000203c
                0x00001e3c                __sram_start = .
 *(.msk_var_use)
 *(.sdc_buf)
 .sdc_buf       0x00001e3c       0x40 ../bwlib\libsd.a(ax32xx_sd.o)
 *(.sram_comm)
 .sram_comm     0x00001e7c       0x60 ./Debug/xos_xmsgq.c.o
 .sram_comm     0x00001edc     0x25c0 ./Debug/src_hal_sys.c.o
                0x00001edc                ramuse
                0x0000449c                __sram_end = .

.fifo           0x00008000      0xce0
                0x00008000                __ufifo_start = .
 *(.sram_Usbfifo)
 .sram_Usbfifo  0x00008000      0xce0 ./Debug/src_hal_sys.c.o
                0x00008000                usbfifo
                0x00008ce0                __ufifo_end = .

.text           0x02000000    0x80380 load address 0x00002200
                0x02000000                _text_start = .
 *(.text*)
 .text          0x02000000        0x0 ./Debug/ax32xx_reset.S.o
 .text          0x02000000        0x0 ./Debug/ax32xx_spi_boot_cfg.S.o
 .text          0x02000000        0x0 ./Debug/ax32xx_BLDRX32.S.o
 .text          0x02000000      0x4a8 ./Debug/main.c.o
                0x02000000                registerTask
                0x020000bc                init
                0x02000440                systemService
                0x02000474                sendDrawUIMsg
 .text.startup  0x020004a8       0xb8 ./Debug/main.c.o
                0x020004a8                main
 .text          0x02000560     0x1b84 ./Debug/resource_manager.c.o
                0x0200069c                managerInit
                0x02000714                managerCreate
                0x020007ec                managerDestory
                0x02000864                managerFileCount
                0x020008fc                managerFileCountEx
                0x02000968                managerLockFileExt
                0x02000a10                managerUnlockFileExt
                0x02000abc                managerCheckLock
                0x02000af8                managerCheckLockExt
                0x02000b88                managerFlush
                0x02000bf4                managerDelFileByIndex
                0x02000d04                managerDelFileAll
                0x02000de8                managerScanStart
                0x02000e50                managerScanEnd
                0x02000f10                explorerListHook
                0x02000f28                managerNameChange
                0x02001128                managerSpaceCheck
                0x0200123c                manangerCheckFileType
                0x0200149c                managerAddFile
                0x02001540                managerAddFileEx
                0x020015a0                managerRenameExt
                0x02001640                managerRename
                0x02001700                managerLockFile
                0x02001788                managerUnlockFile
                0x02001848                managerDelFileByName
                0x020019a4                managerDelFileByFullName
                0x02001b24                managerFileNameCreater
                0x02001d38                managerFileScan
                0x02001ebc                manangerGetFileFullPathName
                0x02001f70                manangerGetFileName
                0x02002008                manangerFindFileAndDel
 .text          0x020020e4      0x310 ./Debug/board.c.o
                0x020020e4                boardInit
                0x0200220c                boardOpen
                0x020022b0                boardIoctrl
                0x02002338                boardNameIoctrl
 .text          0x020023f4      0xb50 ./Debug/board_bwv1.c.o
                0x020029a8                board_lcd_reset
                0x02002a20                board_sensor_reset
                0x02002b5c                board_lcd_ioctrl_pwm
                0x02002ba0                getCurBatteryADC
                0x02002bc0                getKeyADCvalue
                0x02002be0                getKeyVal
                0x02002d04                getKey
                0x02002dd4                keyScanKey
                0x02002f08                board_powerCheck
 .text          0x02002f44      0x2ec ./Debug/config.c.o
                0x02002f44                configCheckSumCal
                0x02002f98                userConfigSave
                0x0200300c                userConfigReset
                0x02003104                userConfigInitial
                0x020031b4                configSet
                0x020031f0                configGet
 .text          0x02003230      0xc58 ./Debug/display.c.o
                0x02003230                dispLayerPIPOnlyFront
                0x020032a0                dispLayerPIPOnlyBack
                0x0200331c                dispLayerPIPBakRightTop
                0x020033bc                dispLayerPIPFrtRightTop
                0x02003440                dispLayerPIPFBHalf
                0x020034c4                dispLayerPIPBFHalf
                0x02003548                dispLayerUninit
                0x020035a4                dispLayerGetResolution
                0x02003678                dispLayerSetResolution
                0x02003764                dispLayerSetRotate
                0x02003798                dispRatioResolutionCalculate
                0x02003870                dispLayerSetRatio
                0x02003920                dispLayerInit
                0x02003b4c                dispLayerShow
                0x02003b90                dispLayerGetFrame
                0x02003bd8                dispLayerGetFreeFrame
                0x02003c18                dispLayerFreeFrame
                0x02003c90                dispLayerSetFrame
                0x02003cdc                dispLayerSetPIPMode
                0x02003d40                dispLayer_ABwin
                0x02003d70                dispLayer_getABwin
                0x02003d90                dispLayerSetFrontCrop
 .text          0x02003e88        0x0 ./Debug/explorer.c.o
 .text          0x02003e88      0xc4c ./Debug/filelist.c.o
 .text          0x02004ad4      0x8ec ./Debug/font.c.o
                0x02004ce4                fontInit
                0x02004dac                fontSetLanguage
                0x02004e5c                fontGetStringInfo
                0x02004f0c                fontDrawString
                0x020050fc                resGetString
                0x02005214                resGetChar
 .text          0x020053c0      0x2e0 ./Debug/icon.c.o
                0x020053c0                iconInit
                0x0200540c                iconGetSize
                0x020054b0                iconGetData
                0x0200554c                iconGetAddr
                0x020055c0                iconGetPalette
                0x02005630                iconGetGamePalette
 .text          0x020056a0      0x1ec ./Debug/configGetValue.c.o
                0x020056a0                configValue2Int
 .text          0x0200588c      0x19c ./Debug/configSystem.c.o
                0x0200588c                configLanguage
                0x02005904                configSys
                0x020059ec                configSystem
 .text          0x02005a28      0x770 ./Debug/logo.c.o
                0x02005a28                logo_image_show
                0x02005b20                jpg_decode_show
                0x02005c08                logo_music_show
                0x02005d98                layout_logo_show
                0x02005e84                background_logo_image_show
                0x02005f4c                layout_version_get
                0x02006038                layout_keysound_load
                0x02006110                layout_sound_load
 .text          0x02006198       0xb0 ./Debug/menuMovieRec.c.o
                0x02006198                menuProcDateTime
                0x020061c4                menuProcVersion
                0x020061f0                menuProcFormat
                0x0200621c                menuProcDefault
 .text          0x02006248      0x384 ./Debug/msgDeal.c.o
                0x02006248                msgFuncRegister
                0x02006300                unshieldedMsgFuncRegister
                0x0200637c                msgDeal
                0x020064d8                msgDealByType
                0x02006570                msgDealByMsgInfor
 .text          0x020065cc       0x98 ./Debug/msgSysRecommend.c.o
 .text          0x02006664      0x5a4 ./Debug/msgSysUnshielded.c.o
 .text          0x02006c08      0x320 ./Debug/taskManage.c.o
                0x02006c08                taskInit
                0x02006c7c                taskInfor
                0x02006c90                taskRegister
                0x02006cc8                taskPrevious
                0x02006ce8                taskCurrent
                0x02006d08                taskNext
                0x02006d28                taskStart
                0x02006da8                taskChange
                0x02006dbc                taskService
 .text          0x02006f28      0xc98 ./Debug/taskPhotoEncode.c.o
                0x02006f28                taskPhotoEncodeClose
                0x02006ff4                taskPhotoEncodeService
                0x020070a4                photoImagePreSizeGet
                0x02007340                task_image_createfile
                0x02007448                image_take_photo
                0x020076c4                image_take_photo_to_sdram
                0x020079b4                photo_animation_effect
                0x02007ad0                taskPhotoEncodeOpen
 .text          0x02007bc0     0x1864 ./Debug/taskPhotoEncodeMsg.c.o
                0x020093ac                photoFocusIconCancel
 .text          0x02009424      0x8a4 ./Debug/taskPlayBack.c.o
                0x02009424                taskPlayBackClose
                0x02009460                video_playback_jpg_scale
                0x020095d8                video_playback_start
                0x020099f0                taskPlayBackOpen
                0x02009c0c                taskPlayBackService
 .text          0x02009cc8     0x18ac ./Debug/taskPlayBackMsg.c.o
                0x0200b48c                backBrushBlack
 .text          0x0200b574      0x260 ./Debug/taskPowerOff.c.o
                0x0200b574                uninit
                0x0200b61c                taskPowerOffOpen
 .text          0x0200b7d4      0xdd8 ./Debug/taskSysScanDevice.c.o
                0x0200b7d4                timerMsgSend
                0x0200b878                setKeyEn
                0x0200b898                deamon_astern_check
                0x0200b8ac                reflush_usensor_check
                0x0200b8c0                setSoftwareDetachUsensor
                0x0200b8e0                deamon_usb_check
                0x0200bb70                deamon_gsensor_check
                0x0200bb84                deamon_screen_save
                0x0200bcd4                deamon_key_check
                0x0200be04                deamon_auto_poweroff
                0x0200bf08                deamon_keysound_play
                0x0200bfd8                deamon_sound_play
                0x0200c09c                deamon_fsFreeSize
                0x0200c10c                deamon_fs_scan
                0x0200c294                deamon_sdc_check
                0x0200c498                taskSysScanDev
                0x0200c518                deamon_fsSizeModify
 .text          0x0200c5ac      0x3c0 ./Debug/taskUsbDevice.c.o
 .text          0x0200c96c      0xb50 ./Debug/taskVideoRecord.c.o
                0x0200c96c                taskVideoRecordeService
                0x0200ca48                task_video_Get_Status
                0x0200ca68                video_record_start
                0x0200caf8                task_record_stop
                0x0200cb7c                taskVideoRecordeClose
                0x0200cc7c                task_video_record_caltime
                0x0200ccd0                video_record_callback
                0x0200d2e4                taskVideoRecordeOpen
                0x0200d494                taskVideoRecTimeIncreace
                0x0200d4a8                videoCapturePhoto
 .text          0x0200d4bc     0x17d0 ./Debug/taskVideoRecordMsg.c.o
                0x0200ea58                videoFocusIconCancel
                0x0200ead0                recordTimeCount1S
 .text          0x0200ec8c      0x158 ./Debug/toolFunc.c.o
                0x0200ec8c                intToString
                0x0200ed58                calWeek
 .text          0x0200ede4      0x7d8 ./Debug/uiMenuDateTimeMsg.c.o
                0x0200f254                dateTimeStrUpdate
                0x0200f27c                dateTimeIncreace
                0x0200f41c                dateTimeDecreace
 .text          0x0200f5bc      0x2f4 ./Debug/uiMenuDefaultMsg.c.o
 .text          0x0200f8b0      0x384 ./Debug/uiMenuDelAllMsg.c.o
 .text          0x0200fc34      0x400 ./Debug/uiMenuDelCurMsg.c.o
 .text          0x02010034      0x410 ./Debug/uiMenuFormatMsg.c.o
 .text          0x02010444      0x85c ./Debug/uiMenuItemMsg.c.o
                0x02010c80                menuIsOpen
 .text          0x02010ca0      0x6d8 ./Debug/uiMenuOptionMsg.c.o
 .text          0x02011378      0x2f8 ./Debug/uiMenuUsbMsg.c.o
 .text          0x02011670      0x1bc ./Debug/uiNoFileMsg.c.o
 .text          0x0201182c      0x358 ./Debug/uiTips1Msg.c.o
 .text          0x02011b84      0x33c ./Debug/uiTipsMsg.c.o
 .text          0x02011ec0      0x3bc ./Debug/uiWin.c.o
                0x02011ec0                dialogCB
                0x02012044                uiParentDealMsg
                0x02012074                uiOpenWindow
                0x0201215c                uiOpenWinAndShow
                0x0201224c                windowIsOpen
 .text          0x0201227c      0x138 ./Debug/uiMenuVersionMsg.c.o
 .text          0x020123b4       0xcc ./Debug/taskAudioPlayer.c.o
                0x020123b4                taskAudioPlayerOpen
                0x02012410                taskAudioPlayerClose
                0x02012434                taskAudioPlayerService
 .text          0x02012480     0x1b9c ./Debug/taskAudioPlayerMsg.c.o
                0x02013de4                uni2oem936_init
                0x02013e60                uni2oem936_uninit
                0x02013ea4                oem2uni936_init
                0x02013f20                oem2uni936_uninit
 .text          0x0201401c        0x0 ./Debug/taskAudioPlayerRes.c.o
 .text          0x0201401c        0x0 ./Debug/taskPhotoEncodeRes.c.o
 .text          0x0201401c        0x0 ./Debug/taskPlayBackRes.c.o
 .text          0x0201401c        0x0 ./Debug/taskVideoRecordRes.c.o
 .text          0x0201401c        0x0 ./Debug/uiMenuDateTimeRes.c.o
 .text          0x0201401c        0x0 ./Debug/uiMenuDefaultRes.c.o
 .text          0x0201401c        0x0 ./Debug/uiMenuDelAllRes.c.o
 .text          0x0201401c        0x0 ./Debug/uiMenuDelCurRes.c.o
 .text          0x0201401c        0x0 ./Debug/uiMenuFormatRes.c.o
 .text          0x0201401c        0x0 ./Debug/uiMenuItemRes.c.o
 .text          0x0201401c        0x0 ./Debug/uiMenuOptionRes.c.o
 .text          0x0201401c        0x0 ./Debug/uiMenuUsbRes.c.o
 .text          0x0201401c        0x0 ./Debug/uiMenuVersionRes.c.o
 .text          0x0201401c        0x0 ./Debug/uiNoFileRes.c.o
 .text          0x0201401c        0x0 ./Debug/uiTips1Res.c.o
 .text          0x0201401c        0x0 ./Debug/uiTipsRes.c.o
 .text          0x0201401c       0xf0 ./Debug/taskMainMenu.c.o
                0x0201401c                taskMainMenuService
                0x02014030                taskMainMenuOpen
                0x020140ec                taskMainMenuClose
 .text          0x0201410c      0x85c ./Debug/taskMainMenuMsg.c.o
 .text          0x02014968        0x0 ./Debug/taskMainMenuRes.c.o
 .text          0x02014968       0xac ./Debug/taskSettingMenu.c.o
                0x02014968                taskSettingMenuService
                0x0201497c                taskSettingMenuClose
                0x02014990                taskSettingMenuOpen
 .text          0x02014a14     0x1888 ./Debug/userInterface.c.o
                0x02014a14                actionUpperToBottom
                0x02014bcc                actionBottomToUpper
                0x02014da4                actionSquareInsideToOutside
                0x02014f54                actionSquareOutsideToInside
                0x0201510c                actionLeftBottomToRightUpper
                0x02015298                actionLeftToRight
                0x02015464                actionLeftUpperToRightBottom
                0x02015618                actionCircleInside2OutSide
                0x02015a2c                getActionFunc
                0x02015ad4                animationInit
                0x02015bc0                animationRun
                0x02015c68                animationUnInit
                0x02015cac                circle_fill
                0x02016208                type_function_circle
 .text          0x0201629c      0x508 ./Debug/upgrade.c.o
                0x0201629c                upgrade_led_control
                0x02016314                upgrade_uiProgress
                0x02016354                upgrade
 .text          0x020167a4     0x2488 ./Debug/game_block.c.o
                0x020167a4                game_cnt_down
                0x020167d4                game_cnt_reinit
                0x020167f4                game_cnt_over
                0x02016824                game_cnt_clear
                0x02016850                effect_rand_get
                0x020168d8                power_up_rand_list_init
                0x02016978                block_cnt_init
                0x020169dc                rand_get
                0x02016a6c                level_back_index_get
                0x02016a90                block_map_init
                0x02016af0                move_icon_universal_draw
                0x02016b60                game_frame_buff_show_get
                0x02016b80                block_icon_draw
                0x02016c14                block_src_init_and_draw
                0x02016cd4                block_map_draw
                0x02016d7c                game_boundary_init
                0x02016dc0                game_block_level_init
                0x02016dfc                life_icon_draw
                0x02016f08                right_score_draw
                0x0201703c                ball_icon_draw
                0x020170d4                board_icon_draw
                0x0201711c                power_up_item_icon_draw
                0x020171dc                DrawMap_block
                0x02017224                power_up_item_init
                0x0201731c                power_up_item_destroy
                0x02017388                ball_init
                0x0201746c                ball_item_destroy
                0x020174d8                copy_ball_action
                0x02017554                ball_and_board_init
                0x020175f4                board_and_ball_flash_init
                0x0201762c                move_rule
                0x02017720                game_boundary_hit_check
                0x020177cc                universal_hit_action
                0x02017800                universal_hit_check
                0x02017ae8                board_hit_check
                0x02017bc8                block_hit_check
                0x02017d44                clear_block_effect
                0x02017ef0                board_move
                0x02017fa8                ball_move
                0x0201806c                ball_fire_power_up
                0x020180d4                ball_multi_power_up
                0x02018160                power_up_item_move
                0x02018254                power_up_move
                0x020182d4                move
                0x02018390                pass_check
                0x020183ec                game_block_init
                0x02018440                block_free_buf
                0x0201849c                game_block_exit
                0x020184f0                flash_reinit
                0x020185bc                flash_init
                0x02018604                block_breaker_going_key_response
                0x020186bc                game_block_start
                0x02018780                block_breaker_going
                0x020188b8                block_breaker_level_pass
                0x0201891c                block_breaker_game_over_show
                0x02018990                block_breaker_game_pause
                0x02018ac4                game_block_key_active
                0x02018b38                game_block_entry
 .text          0x02018c2c      0xe08 ./Debug/game_snake.c.o
                0x02018c2c                snake_get_buf
                0x02018c9c                snake_put_buf
                0x02018cf4                snake_init
                0x02018da0                rand_next
                0x02018e54                createFood
                0x02018f38                creatMap
                0x02018f8c                biteSelf
                0x02018fe4                chet_endGamestatus
                0x02019074                detore_snake
                0x020190c8                snakeOSDDisplayBufGet
                0x02019114                snake_I80
                0x0201920c                snakeOSDDisplay
                0x0201926c                snake_frame_icon_draw
                0x02019378                get_malloc
                0x020193a0                show_icon_rect
                0x020194a8                show_all
                0x020195e0                snakeMove
                0x020197f4                key_read
                0x02019894                snake_main_init
                0x0201993c                game_snake_entry
 .text          0x02019a34      0x728 ./Debug/game_sokoban.c.o
                0x02019a34                Move
                0x02019b90                resultCheck
                0x02019c28                map_init
                0x02019c6c                get_map_size
                0x02019c84                man_init
                0x02019cf4                DataRead_CMode
                0x02019d68                TXZ_show_icon_rect
                0x02019e7c                TXZ_show_one_rect
                0x02019ea8                DrawMap
                0x02019f20                TXZ_show_all
                0x02019f58                get_game_map
                0x0201a020                sokoban_init
                0x0201a07c                game_sokoban_entry
 .text          0x0201a15c      0xfe4 ./Debug/game_tetris.c.o
                0x0201a15c                insertTetris
                0x0201a204                checkCollision_L
                0x0201a23c                checkCollision_R
                0x0201a270                checkCollision
                0x0201a310                show_one_diamonds
                0x0201a398                printScore
                0x0201a568                printNextTetris
                0x0201a5fc                giveTetris
                0x0201a6dc                removeTetris
                0x0201a794                printCurrentTetris
                0x0201a8b4                setPoolColor
                0x0201a968                rotateTetris
                0x0201aa0c                checkErasing
                0x0201ab9c                printTetrisPool
                0x0201ac6c                moveDownTetris
                0x0201ad1c                horzMoveTetris
                0x0201adc0                keydownControl
                0x0201ae88                endgame
                0x0201aea4                restartGame
                0x0201af44                game_tetris_init
                0x0201afd8                game_tetris_exit
                0x0201b01c                game_tetris_entry
 .text          0x0201b140     0x19ec ./Debug/taskGame.c.o
                0x0201b140                taskGameClose
                0x0201b294                gameInit
                0x0201b324                gameGetKeyADCValue
                0x0201b3d0                game_key_judge
                0x0201b45c                fps_count_reset
                0x0201b488                rand_int
                0x0201b4f4                get_game_base_buf
                0x0201b51c                get_game_show_buf
                0x0201b5f8                get_bin_data
                0x0201b67c                frame_icon_draw
                0x0201b810                game_OSD_str_draw
                0x0201be74                game_tips
                0x0201c1b0                game_over
                0x0201c2ac                gameExit
                0x0201c320                taskGameService
                0x0201c388                game_bk_draw
                0x0201c434                frame_buff_display
                0x0201c4ac                free_buf
                0x0201c4d4                game_audio_init
                0x0201c658                taskGameOpen
                0x0201c694                game_audio_play
                0x0201c83c                game_key_event
                0x0201c93c                gameTickGenerator
                0x0201ca04                game_result_tips
 .text          0x0201cb2c       0xb0 ./Debug/taskGameMenu.c.o
                0x0201cb2c                taskGameMenuService
                0x0201cb40                taskGameMenuOpen
                0x0201cbbc                taskGameMenuClose
 .text          0x0201cbdc      0xcec ./Debug/taskGameMenuMsg.c.o
 .text          0x0201d8c8        0x0 ./Debug/taskGameMenuRes.c.o
 .text          0x0201d8c8     0x11f4 ./Debug/game_plane.c.o
                0x0201d8c8                is_in_range
                0x0201d918                collision_chect
                0x0201db74                move_enemy_bullet_c
                0x0201dc14                AI_mage
                0x0201dc68                move_my_planle
                0x0201ddbc                new_my_bullet
                0x0201de6c                new_p_boom
                0x0201df30                move_my_bullet_c
                0x0201e020                move_bullet
                0x0201e044                move_one_enemy_planle
                0x0201e20c                move_enemy_planle
                0x0201e254                new_enemy_Plane
                0x0201e330                pGame_show_icon_rect
                0x0201e4e4                show_plane_boom
                0x0201e548                show_enemy_Plane
                0x0201e5a0                show_my_bullet
                0x0201e5f8                show_score
                0x0201e88c                game_plane_entry
 .text          0x0201eabc      0x5a8 ./Debug/game_maze.c.o
                0x0201eabc                Move_maze
                0x0201ec7c                resultCheck_maze
                0x0201ecd4                maze_map_set
                0x0201ed14                get_map_maze_size
                0x0201ed2c                man_maze_init
                0x0201ed5c                maze_show_one_rect
                0x0201ee20                maze_DrawMap
                0x0201ee98                maze_show_all
                0x0201eed0                maze_map_init
                0x0201ef18                maze_keypress
                0x0201ef6c                maze_init
                0x0201efb4                game_maze_entry
 .text          0x0201f064        0x0 ./Debug/xos_x_cpu.c.o
 .text          0x0201f064      0x1b0 ./Debug/xos_xmbox.c.o
                0x0201f064                XMboxInit
                0x0201f0a4                XMboxCreate
                0x0201f12c                XMboxDestory
                0x0201f164                XMboxPost
                0x0201f1b8                XMboxPend
 .text          0x0201f214      0x2e4 ./Debug/xos_xmsgq.c.o
                0x0201f214                XMsgQInit
                0x0201f254                XMsgQCreate
                0x0201f2e4                XMsgQDestory
                0x0201f31c                XMsgQFlush
                0x0201f35c                XMsgQPost
                0x0201f3d4                XMsgQPostFront
                0x0201f450                XMsgQPend
                0x0201f4e0                XMsgQCheck
 .text          0x0201f4f8      0x12c ./Debug/xos_xos.c.o
                0x0201f4f8                XOSInit
                0x0201f538                XOSTickService
                0x0201f5a8                XOSTimeGet
                0x0201f5c8                XOSTimeDly
                0x0201f604                XOSRandom
 .text          0x0201f624      0x168 ./Debug/xos_xwork.c.o
                0x0201f624                XWorkInit
                0x0201f664                XWorkCreate
                0x0201f6f0                XWorkDestory
                0x0201f720                XWorkService
 .text          0x0201f78c      0xb04 ./Debug/multimedia_user_media.c.o
                0x0201f78c                jpg_decode_buf
                0x0201f830                jpg_buf_decode_buf
                0x0201f8d4                yuv_rgb_table_init
                0x0201faf0                yuv_rgb_table_uninit
                0x0201fb34                bmp24_to_yuv420_buf
                0x0201feb8                yuv420_draw_buf
                0x020200a8                yuv420_software_set_handle_frame
                0x020200c8                yuv420_software_get_handle_frame
                0x020200e8                yuv420_effect_handle
 .text          0x02020290      0x1ec ./Debug/sUI_button.c.o
                0x02020364                buttonCreate
                0x020203d8                buttonCreateIndirect
 .text          0x0202047c      0x168 ./Debug/sUI_dialog.c.o
                0x0202047c                dialogCreate
                0x0202052c                dialogItem
 .text          0x020205e4      0x22c ./Debug/sUI_frameWin.c.o
                0x0202073c                frameWinCreate
                0x020207a0                frameWinCreateIndirect
 .text          0x02020810      0x2b0 ./Debug/sUI_imageIcon.c.o
                0x02020998                imageIconCreate
                0x02020a44                imageIconCreateIndirect
 .text          0x02020ac0     0x191c ./Debug/sUI_itemManage.c.o
                0x02020ac0                itemManageCreate
                0x02020b44                itemManageCreateIndirect
                0x02020bb8                itemManageSetItemHeight
                0x02020d3c                itemManageSetItemRowSumGap
                0x02020e44                itemManageSetHeightAvgGap
                0x02020fb8                itemManageSetRowSum
                0x020210ec                itemManageSetColumnSum
                0x0202123c                itemManageSetColumnSumWithGap
                0x020213b8                itemManageSetColumnMargin
                0x020214e8                itemManageCreateItem
                0x02021684                itemManageSetResInforFuncEx
                0x020216dc                itemManageSetCurItem
                0x020219d8                itemManageUpdateRes
                0x02021a90                itemManageUpdateAllitem
                0x02021af4                itemManageUpdateCurItem
                0x02021c98                itemManageNextItem
                0x02021d08                itemManagePreItem
                0x02021d78                itemManageNextPage
                0x02021dfc                itemManagePrePage
                0x02021e84                itemManageGetCurrentItem
                0x02021ee8                itemManageSetCharInfor
                0x02021fa0                itemManageSetSelectColor
                0x0202203c                itemManageSetSelectImage
                0x020220dc                itemManageSetUnselectColor
                0x02022178                itemManageSetUnselectImage
                0x02022218                itemManageGetTouchInfor
 .text          0x020223dc      0x3c4 ./Debug/sUI_menuItem.c.o
                0x0202260c                menuItemCreate
                0x020226b4                itemCreateMenuItem
 .text          0x020227a0      0x504 ./Debug/sUI_menuItemEx.c.o
                0x02022ac8                menuItemExCreate
                0x02022b78                itemCreateMenuItemEx
 .text          0x02022ca4      0x360 ./Debug/sUI_menuOption.c.o
                0x02022e98                menuOptionCreate
                0x02022f3c                itemCreatemenuOption
 .text          0x02023004      0x344 ./Debug/sUI_progressBar.c.o
                0x0202322c                progressBarCreate
                0x020232b0                progressBarCreateIndirect
                0x02023328                progressBarSetDirction
 .text          0x02023348      0x264 ./Debug/sUI_rect.c.o
                0x020234b4                rectCreate
                0x02023538                rectCreateIndirect
 .text          0x020235ac      0x380 ./Debug/sUI_stringIcon.c.o
                0x020237bc                stringIconCreate
                0x02023878                stringIconCreateIndirect
 .text          0x0202392c      0x2b0 ./Debug/sUI_tips.c.o
                0x02023ac8                tipsCreate
                0x02023b54                tipsCreateIndirect
 .text          0x02023bdc      0x26c ./Debug/sUI_uiAlloc.c.o
                0x02023bdc                uiHeapInit
                0x02023c14                uiAlloc
                0x02023d0c                uiFree
                0x02023e0c                uiHeapInfor
                0x02023e34                heapAllocTest
 .text          0x02023e48      0x11c ./Debug/sUI_widget.c.o
                0x02023e48                widgetProc
                0x02023e94                widgetSetType
                0x02023ec4                widgetGetType
                0x02023ef8                widgetGetId
                0x02023f30                widgetSetId
 .text          0x02023f64     0x1b78 ./Debug/sUI_winManage.c.o
                0x02023f64                winErrShow
                0x02023fb0                winSendMsg
                0x02023ff0                winSendMsgNoData
                0x02024018                winSendMsgToParent
                0x02024048                winSendMsgToParentNoData
                0x02024070                winOverlapping
                0x020240d4                winContain
                0x02024138                winHasInvalidRect
                0x020241cc                winFreeInvalidRect
                0x020244c8                winCreate
                0x020248d4                winDestroy
                0x02024a40                winGetTouchInfor
                0x02024a70                winTouch
                0x02024c90                winSetbgColor
                0x02024cc4                winSetfgColor
                0x02024cf8                winSetVisible
                0x02024d7c                winIsVisible
                0x02024db8                winSetResid
                0x02024de8                winSetItemSelResid
                0x02024e18                winSetStrInfor
                0x02024e68                resInforInit
                0x02024eb4                winSetSelectInfor
                0x02024ee4                winSetUnselectInfor
                0x02024f14                winChangeNotify
                0x02024f7c                winDefaultProc
                0x02025358                winResize
                0x020254e8                winGetRelativePos
                0x02025578                winGetPos
                0x020255bc                winUpdate
                0x0202562c                winSetPorgressRate
                0x0202565c                winSetPorgressDirction
                0x0202568c                winGetCurrent
                0x020256ac                winPaint
                0x020257b8                winSetName
                0x020257d8                winIntersection
                0x0202588c                winUpdateAllResId
                0x020258f0                winDestroyDeskTopChildWin
                0x02025964                winInit
                0x02025a50                winUninit
 .text          0x02025adc      0x110 ./Debug/sUI_memPool.c.o
                0x02025adc                mempCreate
                0x02025b44                mempGet
                0x02025b9c                mempPut
                0x02025bd8                mempInfor
 .text          0x02025bec      0x43c ./Debug/sUI_widgetManage.c.o
                0x02025e40                widgetManageCreate
                0x02025ec4                widgetManageCreateIndirect
                0x02025f34                widgetManageUpdateAll
                0x02025f58                widgetManageUpdateCur
                0x02025f7c                widgetManageNext
                0x02025fa0                widgetManagePre
                0x02025fc4                widgetManageSelect
                0x02025ff8                widgetManageCurId
 .text          0x02026028      0x3bc ./Debug/src_ax32xx_int.c.o
                0x02026028                ax32xx_intHandler
                0x0202603c                fast_isr
                0x0202611c                slow_isr
                0x02026210                ax32xx_intEnable
                0x02026258                ax32xx_int_priority
                0x020262a0                ax32xx_intInit
 .text          0x020263e4      0xa44 ./Debug/src_ax32xx_sys.c.o
                0x020263e4                ax32xx_sysCpuMsDelay
                0x02026420                ax32xx_sysCpuNopDelay
                0x02026448                ax32xx_sysDcacheInit
                0x0202648c                ax32xx_sysIcacheInit
                0x020264d0                ax32xx_sysDcacheWback
                0x0202654c                ax32xx_sysDcacheFlush
                0x020265c8                ax32xx_sysDcacheInvalid
                0x02026644                ax32xx_sysSRAMClear
                0x02026698                ax32xx_sysBSSClear
                0x020266fc                ax32xx_sysLDOSet
                0x020268e0                ax32xx_sysClkSet
                0x0202693c                ax32xx_sysReset
                0x0202697c                ax32xx_sys_dma_memdown
                0x020269e0                ax32xx_sys_dma_memkick
                0x02026aa4                ax32xx_mcpy_gram2ufifo
                0x02026b04                ax32xx_mcpy1_sdram2gram
                0x02026ba8                ax32xx_mcpy1_sdram2gram_2
                0x02026c08                ax32xx_sysInit
                0x02026d68                ax32xx_sysUninit
 .text          0x02026e28      0x298 ./Debug/src_ax32xx_dma.c.o
                0x02026e28                ax32xx_dmaNocCfg
                0x02027050                ax32xx_dmaNocDefault
                0x02027078                ax32xx_dmaChannelEnable
 .text          0x020270c0       0x98 ./Debug/src_ax32xx_wdt.c.o
                0x020270c0                ax32xx_wdtEnable
                0x020270f4                ax32xx_wdtTimeSet
                0x02027108                ax32xx_wdtClear
                0x0202713c                ax32xx_wdtReset
 .text          0x02027158      0xe08 ./Debug/src_ax32xx_gpio.c.o
                0x02027158                ax32xx_gpioSFRSet
                0x0202739c                ax32xx_gpioDirSet
                0x02027440                ax32xx_gpioPullSet
                0x0202750c                ax32xx_gpioDrvSet
                0x0202759c                ax32xx_gpioDataSet
                0x02027628                ax32xx_gpioDataGrounpSet
                0x020276a4                ax32xx_gpioDataGet
                0x02027728                ax32xx_gpioMapSet
                0x020277b8                ax32xx_gpioDigitalSet
                0x02027848                ax32xx_gpioHystersisSet
                0x020278d8                ax32xx_gpioLedPull
                0x020279a4                ax32xx_gpioLedInit
                0x02027a34                ax32xx_gpioINTCheck
                0x02027a6c                ax32xx_gpioINTClear
                0x02027a94                ax32xx_gpioINTInit
                0x02027bc4                ax32xx_gpioIRQHandler
                0x02027c60                ax32xx_io1d1_softstart
                0x02027e20                ax32xx_io1d1_softstart_clr
                0x02027ed0                ax32xx_io1d1_pd_enable
 .text          0x02027f60      0x1a4 ./Debug/src_ax32xx_uart.c.o
                0x02027f60                ax32xx_uart0IRQHandler
                0x02027fb0                ax32xx_uart0IOCfg
                0x02028050                ax32xx_uart0Init
                0x020280c4                ax32xx_uart0SendByte
 .text          0x02028104      0x9ec ./Debug/src_ax32xx_timer.c.o
                0x02028104                ax32xx_timer0IRQHandler
                0x02028148                ax32xx_timer1IRQHandler
                0x0202818c                ax32xx_timer2IRQHandler
                0x020281d0                ax32xx_timer3IRQHandler
                0x02028214                ax32xx_timerISRRegister
                0x02028258                ax32xx_timerStart
                0x02028354                ax32xx_timerStop
                0x02028424                ax32xx_timerEnable
                0x020284b0                ax32xx_timerDisable
                0x02028554                ax32xx_timerTickStart
                0x02028588                ax32xx_timerTickStop
                0x020285a8                ax32xx_timerTickCount
                0x020285c4                ax32xx_timerPWMStart
                0x02028a3c                ax32xx_timerPWMStop
 .text          0x02028af0      0x468 ./Debug/src_ax32xx_tminf.c.o
                0x02028af0                ax32xx_mjpegATimeinfoEnable
                0x02028b5c                ax32xx_mjpegBTimeinfoEnable
                0x02028bc8                ax32xx_mjpegATimeinfoColor
                0x02028c14                ax32xx_mjpegBTimeinfoColor
                0x02028c70                ax32xx_mjpegATimeinfoSize
                0x02028ccc                ax32xx_mjpegBTimeinfoSize
                0x02028d54                ax32xx_mjpegATimeinfoPos
                0x02028db0                ax32xx_mjpegBTimeinfoPos
                0x02028e38                ax32xx_mjpegATimeinfoAddr
                0x02028e7c                ax32xx_mjpegBTimeinfoAddr
                0x02028eec                ax32xx_recfg_mjpb_tminf
 .text          0x02028f58      0x7f4 ./Debug/src_ax32xx_spi.c.o
                0x02028f58                ax32xx_spi0Init
                0x02029178                ax32xx_spi0SendByte
                0x020291cc                ax32xx_spi0RecvByte
                0x02029220                ax32xx_spi0Send0
                0x020292d8                ax32xx_spi0Recv0
                0x02029390                ax32xx_spi0CS0Config
                0x020293d4                spi1_pin_config
                0x020294a4                hal_spi1Init
                0x0202951c                spi1_send_byte
                0x0202958c                spi1_receive_byte
                0x020295d4                spi1_recevie_dma
                0x0202966c                spi1_send_dma
                0x02029708                spi1_enable
 .text          0x0202974c      0xb74 ./Debug/src_ax32xx_rtc.c.o
                0x0202974c                ax32xx_rtcWriteByte
                0x0202979c                ax32xx_rtcReadByte
                0x02029800                ax32xx_rtcRamRead
                0x0202989c                ax32xx_rtcRamWrite
                0x02029938                ax32xx_rtcDataRead
                0x020299c0                ax32xx_rtcDataWrite
                0x02029a48                ax32xx_rtcInit
                0x02029af8                ax32xx_rtcIRQHandler
                0x02029bb0                ax32xx_rtcSencodEnable
                0x02029c2c                ax32xx_rtcAlamEnable
                0x02029d14                ax32xx_rtcAlamSet
                0x02029d5c                ax32xx_rtcGet
                0x02029db0                ax32xx_rtcSet
                0x02029df8                ax32xx_WKOEnable
                0x02029e54                ax32xx_VDDGSENEnable
                0x02029ec4                ax32xx_WKI0InputEnable
                0x02029f34                ax32xx_WKI1InputEnable
                0x02029fa4                ax32xx_WKI1Read
                0x02029fc8                ax32xx_WKI0Read
                0x02029fec                ax32xx_WKI1WakeupEnable
                0x0202a154                ax32xx_WKI1WakeupTriger
                0x0202a1a4                ax32xx_WKI1CleanPending
                0x0202a1e0                ax32xx_rtcBatDecEnable
                0x0202a250                ax32xx_rtcSenHVEnable
 .text          0x0202a2c0      0x7e8 ./Debug/src_ax32xx_iic.c.o
                0x0202a378                software_iic_sdaout
                0x0202a3ac                software_iic_sdain
                0x0202a3e0                software_iic_sda_set
                0x0202a40c                software_iic_scl_set
                0x0202a438                software_iic_sda_get
                0x0202a460                software_iic_init
                0x0202a490                software_iic_start
                0x0202a508                software_iic_stop
                0x0202a580                software_iic_wait_ack
                0x0202a638                ax32xx_iic0Init
                0x0202a6f8                ax32xx_iic0Uninit
                0x0202a73c                ax32xx_iic0Start
                0x0202a758                ax32xx_iic0Stop
                0x0202a798                ax32xx_iic0RecvACK
                0x0202a7c0                ax32xx_iic0SendACK
                0x0202a7e4                ax32xx_iic0SendByte
                0x0202a834                ax32xx_iic0RecvByte
                0x0202a888                ax32xx_iic1Init
                0x0202a8b0                ax32xx_iic1Uninit
                0x0202a8f4                ax32xx_iic1Start
                0x0202a910                ax32xx_iic1Stop
                0x0202a970                ax32xx_iic1RecvACK
                0x0202a998                ax32xx_iic1SendACK
                0x0202a9bc                ax32xx_iic1SendByte
                0x0202aa2c                ax32xx_iic1RecvByte
 .text          0x0202aaa8      0x66c ./Debug/src_ax32xx_dac.c.o
                0x0202aae8                ax32xx_dacIRQHandler
                0x0202abbc                ax32xx_dacSampleRateSet
                0x0202ac2c                ax32xx_dacEnable
                0x0202acb0                ax32xx_dacVolumeSet
                0x0202ad28                ax32xx_dacBufferSet
                0x0202ad48                ax32xx_dacBufferFlush
                0x0202ad68                ax32xx_dacReset
                0x0202ad8c                ax32xx_dacStart
                0x0202ae08                ax32xx_dacStop
                0x0202ae38                ax32xx_dacISRRegister
                0x0202ae58                ax32xx_dacHPSet
                0x0202aeec                eq_coeff_init
                0x0202af5c                eq_gain_init
                0x0202afcc                ax32xx_dacInit
 .text          0x0202b114      0x114 ./Debug/src_ax32xx_adc.c.o
                0x0202b114                ax32xx_adcEnable
                0x0202b17c                ax32xx_adcSetBaudrate
                0x0202b1ac                ax32xx_adcConverStart
                0x0202b1d0                ax32xx_adcRead
 .text          0x0202b228      0x4d0 ./Debug/src_ax32xx_auadc.c.o
                0x0202b228                ax32xx_auadcIRQHandler
                0x0202b2b8                ax32xx_auadcHalfIRQRegister
                0x0202b2d8                ax32xx_auadcEndIRQRegister
                0x0202b2f8                ax32xx_auadcEnable
                0x0202b3f0                ax32xx_auadcAGCEnable
                0x0202b480                ax32xx_auadcGainSet
                0x0202b4fc                ax32xx_auadcBufferSet
                0x0202b55c                ax32xx_auadcInit
                0x0202b600                ax32xx_auadcSetSampleSet
                0x0202b6e4                agc_gain_mnt
 .text          0x0202b6f8      0x298 ./Debug/src_jpeg_table.c.o
                0x0202b6f8                jpegA_table_init
                0x0202b874                ax32xx_mjpB_tab_init
 .text          0x0202b990      0xd68 ./Debug/src_ax32xx_usb.c.o
                0x0202b990                _usb_bulk_tx
                0x0202bacc                _usb_bulk_rx
                0x0202bbd8                _usb_iso_kick
                0x0202bcc8                _iso_wait_txdown
                0x0202bd38                usb_iso_tx
                0x0202be38                usb_burst_reset
                0x0202be84                usb_host_reset
                0x0202bed0                usb_phyreset_as_typeb
                0x0202c018                usb_phyreset_as_typea
                0x0202c164                usb_insert
                0x0202c178                usb_check_hal
                0x0202c18c                get_u32softcnt
                0x0202c1ac                ax32xx_usbIRQHanlder
                0x0202c2a0                ax32xx_usbCallbackRegister
                0x0202c2dc                ax32xx_usb_hostIRQHanlder
                0x0202c2f0                usb_device_check
                0x0202c3b8                ax32xx_usbPhyPllEnable
                0x0202c460                usb11_registers_write
                0x0202c48c                usb11_registers_read
                0x0202c4c4                usb_memcpy
                0x0202c538                usb_phyreset_as_typea11
                0x0202c54c                usb11_host_reset
                0x0202c560                ax32xx_usb11_hostIRQHanlder
                0x0202c574                usb20_host_check
                0x0202c63c                usb11HostCheckNoWait
                0x0202c650                usb11_host_check
                0x0202c664                usb20_phyreset_as_filter
 .text          0x0202c6f8      0x210 ./Debug/src_ax32xx_misc.c.o
                0x0202c6f8                str_seek
                0x0202c764                dec_num2str
                0x0202c7a4                char_2_hex
                0x0202c7f8                data_check
                0x0202c838                pointer_check
                0x0202c85c                half_word_memcpy
                0x0202c894                word_memcpy
                0x0202c8cc                word_reg_memcpy
 .text          0x0202c908      0x14c ./Debug/src_ax32xx_pip.c.o
                0x0202c908                ax32xx_pipConfig
                0x0202c984                ax32xx_pipEnable
                0x0202c9c8                ax32xx_pipCounterReset
                0x0202ca08                ax32xx_pipGetTopLayer
                0x0202ca2c                ax32xx_pipGetBotLayer
 .text          0x0202ca54        0x0 ./Debug/src_ax32xx_btuart.c.o
 .text          0x0202ca54        0x0 ./Debug/src_ax32xx_crc.c.o
 .text          0x0202ca54      0x26c ./Debug/src_ax32xx_emi.c.o
                0x0202ca54                ax32xx_emiInit
                0x0202cb90                ax32xx_emiISRRegister
                0x0202cbc4                ax32xx_emiIRQHandler
                0x0202cc20                ax32xx_emiKick
                0x0202cc7c                ax32xx_emiCheckBusy
                0x0202cc9c                ax32xx_emiCheckRXError
 .text          0x0202ccc0      0x278 ./Debug/src_ax32xx_rotate.c.o
                0x0202ccc0                ax32xx_rotateISRRegiser
                0x0202cce0                ax32xx_rotateCheckBusy
                0x0202cd00                ax32xx_rotateReset
                0x0202cd4c                ax32xx_rotateStart
                0x0202ce64                ax32xx_rotateWaitFrameDone
                0x0202ceb8                ax32xx_rotateIRQHandler
                0x0202cf08                ax32xx_rotateGetSrcYAddr
 .text          0x0202cf38      0x370 ./Debug/src_ax32xx_osdcmp.c.o
                0x0202cf38                ax32xx_osdcmpISRRegiser
                0x0202cf58                ax32xx_osdcmpCheckBusy
                0x0202cf7c                ax32xx_osdcmpReset
                0x0202cfc8                ax32xx_osdcmpGetCompSize
                0x0202cfe8                ax32xx_osdcmpKick
                0x0202d0bc                ax32xx_osdcmpWaitFrameDone
                0x0202d154                ax32xx_osdcmpCompOneFrame
                0x0202d25c                ax32xx_osdcmpIRQHandler
 .text          0x0202d2a8       0x3c ./Debug/src_ax32xx_isp.c.o
                0x0202d2a8                ax32xx_ispModeSet
 .text          0x0202d2e4      0xd68 ./Debug/osd_ax32xx_osd.c.o
                0x0202d2e4                ax32xx_deWait
                0x0202d340                ax32xx_deUpdate
                0x0202d364                ax32xx_deGetUpdateStatus
                0x0202d388                ax32xx_deIRQHandler
                0x0202d3e8                ax32xx_deISRRegister
                0x0202d408                ax32xx_deInit
                0x0202d484                ax32xx_deSetBackground
                0x0202d4b8                ax32xx_deSetCSC
                0x0202d504                ax32xx_videoSetDither
                0x0202d5a4                ax32xx_videoSetScale
                0x0202d5f0                ax32xx_videoSetScaleLine
                0x0202d660                ax32xx_videoSetScanMode
                0x0202d6ac                ax32xx_videoGetYAddr
                0x0202d6dc                ax32xx_videoGetUVAddr
                0x0202d70c                ax32xx_videoSetAddr
                0x0202d728                ax32xx_videoSetStride
                0x0202d74c                ax32xx_videoSetSize
                0x0202d784                ax32xx_videoSetPosition
                0x0202d7ac                ax32xx_videoCopyCfg
                0x0202d814                ax32xx_videoEnable
                0x0202d858                ax32xx_degamma_cfg
                0x0202d878                ax32xx_videoGammaRed
                0x0202d8bc                ax32xx_videoGammaGreen
                0x0202d900                ax32xx_videoGammaBlue
                0x0202d944                ax32xx_deSetGAMA
                0x0202d9c8                ax32xx_deSet_DE_CCM
                0x0202dab0                ax32xx_deSet_DE_SAJ
                0x0202db1c                ax32xx_videoGammaEnable
                0x0202db60                ax32xx_osdEnable
                0x0202dbcc                ax32xx_osdSetSize
                0x0202dc20                ax32xx_osdSetPosition
                0x0202dc74                ax32xx_osdSetPalette
                0x0202dcbc                ax32xx_osdSetAddr
                0x0202dd78                ax32xx_osdGetAddr
                0x0202ddc8                ax32xx_osdSetAlpha
                0x0202de34                ax32xx_osdSetUpscaler
                0x0202dffc                ax32xx_osdEncodeOneCode
 .text          0x0202e04c      0xfc8 ./Debug/csi_ax32xx_csi.c.o
                0x0202e04c                hal_csi_fcnt_get
                0x0202e07c                ax32xx_csiIRQHandler
                0x0202e30c                ax32xx_csiISRRegiser
                0x0202e348                ax32xx_csiMJPEGFrameSet
                0x0202e3b8                ax32xx_csihv_tomjp_dma_cfg
                0x0202e444                ax32xx_csi_only_FrameSet
                0x0202e464                ax32xx_csiYUVFrameSet
                0x0202e478                ax32xx_csiIOConfig
                0x0202e4d0                ax32xx_csiInit
                0x0202e4fc                ax32xx_csiMclkSet
                0x0202e5c0                ax32xx_csi_set_mclk_free
                0x0202e608                ax32xx_csiSyncSet
                0x0202e66c                ax32xx_csiPrioritySet
                0x0202e6b0                ax32xx_csiTypeSet
                0x0202e71c                ax32xx_csiModeSet
                0x0202e758                ax32xx_pclk_fir_Set
                0x0202e7c0                ax32xx_pclk_analog_Set
                0x0202e810                ax32xx_pclk_inv_Set
                0x0202e854                ax32xx_csi_clk_tun_Set
                0x0202e89c                ax32xx_csiSizeSet
                0x0202e8d4                ax32xx_csiInputAddrSet
                0x0202e8ec                ax32xx_csiTestModeSet
                0x0202e954                ax32xx_csiDvpClkDivSet
                0x0202e99c                ax32xx_csiLCDFrameSet
                0x0202e9c8                ax32xx_csiLCDDmaEnable
                0x0202ea64                ax32xx_csiLCDDmaKick
                0x0202eaa8                ax32xx_csiLCDScaler
                0x0202ec84                ax32xx_csiScaler
                0x0202edcc                ax32xx_hvScaler
                0x0202ef20                ax32xx_csiScalerCheck
                0x0202ef48                ax32xx_csiOutputSet
                0x0202ef84                ax32xx_csiEnable
 .text          0x0202f014      0xd70 ./Debug/lcd_ax32xx_lcd.c.o
                0x0202f014                ax32xx_lcdSPIMode
                0x0202f040                ax32xx_lcdSPIInit
                0x0202f0f0                ax32xx_lcdSPIUninit
                0x0202f12c                ax32xx_lcdSPISendData
                0x0202f2a0                ax32xx_lcdMcuSendCmd
                0x0202f304                ax32xx_lcdMcuSendData
                0x0202f358                ax32xx_lcdMcuSendCmd16
                0x0202f3dc                ax32xx_lcdMcuSendData16
                0x0202f460                ax32xx_lcdInit
                0x0202f4ac                ax32xx_lcdIRQEnable
                0x0202f4f4                ax32xx_lcdPreLineSet
                0x0202f510                ax32xx_lcdSignalSet
                0x0202f5a8                ax32xx_lcdBusWidth
                0x0202f5fc                ax32xx_lcdBusEnable
                0x0202f64c                ax32xx_lcdClkSet
                0x0202f66c                ax32xx_lcdSyncSet
                0x0202f690                ax32xx_lcdDESignalSet
                0x0202f6b4                ax32xx_lcdPositionSet
                0x0202f6d0                ax32xx_lcdResolutionSet
                0x0202f6ec                ax32xx_lcdWindowSizeSet
                0x0202f708                ax32xx_lcdDataModeSet
                0x0202f74c                ax32xx_lcdClkNumberSet
                0x0202f764                ax32xx_lcdEndLineSet
                0x0202f780                ax32xx_lcdPanelMode
                0x0202f7c8                ax32xx_lcdEnable
                0x0202f82c                ax32xx_lcdTeMode
                0x0202f874                ax32xx_lcdKick
                0x0202f8ac                ax32xx_lcdIRQHandler
                0x0202fa1c                ax32xx_lcdISRRegister
                0x0202fa60                ax32xx_lcdReset
                0x0202facc                ax32xx_lcdMCUIOConfig
                0x0202fbb0                ax32xx_lcdRGBIOConfig
                0x0202fc94                ax32xx_lcd_lsawbtooth
 .text          0x0202fd84     0x1f10 ./Debug/mjpeg_ax32xx_mjpeg.c.o
                0x0202fd84                ax32xx_mpegPrint
                0x02030200                ax32xx_mjpB_reset
                0x0203026c                ax32xx_mjpegAIRQHandler
                0x020302c0                ax32xx_mjpeg_encode_check
                0x0203042c                ax32xx_mjpB_employ
                0x02030458                ax32xx_mjpB_dcdown_reg
                0x02030478                ax32xx_mjB_as_dcode
                0x020304a4                ax32xx_mjpegEA_ncodeISRRegister
                0x020304c4                ax32xx_mjpegEB_ncodeISRRegister
                0x020304e4                ax32xx_mjpegEA_ncodeISR
                0x02030510                ax32xx_mjpegDecodeISRRegister
                0x02030530                ax32xx_mjpegEncodeBufferSet
                0x0203057c                ax32xx_mjpegEncodeEnable
                0x0203066c                ax32xx_mjpegEncode_wifi_Enable
                0x0203075c                ax32xx_mjpegEncodeSizeSet
                0x02030804                ax32xx_mjpegEncodeQuilitySet
                0x0203084c                cal_jA_1s_size
                0x0203087c                ax32xx_mjpegEncodeQadj
                0x02030960                ax32xx_mjpegEncodeInfoSet
                0x020309a8                ax32xx_mjpegEncodeLoadAddrGet
                0x020309c4                ax32xx_mjpeg_inlinebuf_init
                0x020309e0                ax32xx_mjpegEncodeInit
                0x02030c18                ax32xx_mjpeg_manual_on
                0x02030c60                ax32xx_mjpeg_manual_stop
                0x02030c84                ax32xx_mjpegDecodeScalerCal
                0x02030d54                ax32xx_mjpegDecodeSetSize
                0x02030f78                ax32xx_mjpegDecodeOutputSet
                0x02030f94                ax32xx_mjpegDecodeInputSet
                0x02030fcc                ax32xx_mjpegDecodeDriSet
                0x02030fe4                ax32xx_mjpegDecodeCompressSet
                0x02030ffc                ax32xx_mjpegDecodeInitTable
                0x02031040                ax32xx_mjpegDecodeInit
                0x02031244                ax32xx_mjpegDecodeDCTimeSet
                0x020312e4                ax32xx_mjpegDecodeEnable
                0x02031360                ax32xx_mjpegDecodeKick
                0x020313b8                ax32xx_mjpegDecodeStop
                0x020313f4                ax32xx_mjpegBIRQHandler
                0x020314f0                ax32xx_mjpegDecodeQDTCfg
                0x02031550                ax32xx_mjpegDecodeStatus
                0x02031584                ax32xx_mjpegDecodeCheck
                0x020315b4                ax32xx_mjpegDecodeODma1Cfg
                0x02031648                ax32xx_mjpB_Ctl_init
                0x020318fc                ax32xx_mjpB_Linebuf_cfg
                0x02031918                ax32xx_mjpB_dma_cfg
                0x02031944                ax32xx_mjpB_stop
                0x020319ac                ax32xx_mjpB_on
                0x020319f8                ax32xx_mjpB_stop_2
                0x02031a4c                ax32xx_mjpegB_encode_check
                0x02031bc0                ax32xx_mjpB_on_2
                0x02031bf8                jpeg1_decode_check
 .text          0x02031c94        0x0 ./Debug/resource_user_icon.c.o
 .text          0x02031c94        0x0 ./Debug/resource_user_str.c.o
 .text          0x02031c94      0x110 ./Debug/src_hal_adc.c.o
                0x02031c94                hal_adcInit
                0x02031cd0                hal_adcRead
                0x02031cfc                hal_adcSetChannel
                0x02031d48                hal_adcGetChannel
                0x02031d84                hal_adcVDDRTCCalculate
 .text          0x02031da4       0xf0 ./Debug/src_hal_csi.c.o
                0x02031da4                hal_csiMCLKSet
                0x02031dc4                hal_csiRegister
                0x02031df8                hal_csiResolutionGet
                0x02031e54                hal_csiAdptGet
                0x02031e74                hal_csi_SeninitGet
 .text          0x02031e94      0x24c ./Debug/src_hal_dac.c.o
                0x02031edc                hal_dacInit
                0x02031f34                hal_dacPlayStart
                0x02031fe0                hal_dacPlayStop
                0x0203200c                hal_dacSetVolume
                0x02032070                hal_dacSetBuffer
                0x02032094                hal_dacCallBackRegister
                0x020320b8                hal_dacHPSet
 .text          0x020320e0        0x0 ./Debug/src_hal_eeprom.c.o
 .text          0x020320e0      0x2cc ./Debug/src_hal_gpio.c.o
                0x020320e0                hal_gpioInit
                0x02032188                hal_gpioInit_io1d1
                0x02032230                hal_io1d1_softstart
                0x02032260                hal_io1d1_softstart_clr
                0x02032288                hal_io1d1_pd_enable
                0x020322b0                hal_gpioEPullSet
                0x0203230c                hal_gpioWrite
                0x02032334                hal_gpioRead
                0x02032358                hal_gpioIntInit
                0x02032380                hal_gpioLedInit
 .text          0x020323ac      0x64c ./Debug/src_hal_iic.c.o
                0x020323ac                hal_iic0Init
                0x020323d8                hal_iic0Uninit
                0x020323f8                hal_iic08bitAddrWriteData
                0x02032494                hal_iic08bitAddrReadData
                0x0203254c                hal_iic08bitAddrWrite
                0x0203260c                hal_iic08bitAddrRead
                0x020326e0                hal_iic016bitAddrWriteData
                0x02032788                hal_iic016bitAddrReadData
                0x0203284c                hal_iic016bitAddrWrite
                0x02032918                hal_iic016bitAddrRead
 .text          0x020329f8     0x1704 ./Debug/src_hal_lcd.c.o
                0x02032cc0                hal_lcdSetBufYUV
                0x02032d54                hal_lcd_vde_cfg
                0x02032d8c                hal_lcd_gamma_cfg
                0x02032da0                usb_lcd_cfg
                0x02032db4                lcd_isp_config
                0x02032dc8                hal_lcdLCMPowerOff
                0x02032e40                hal_lcdPreviewStop
                0x02032e8c                hal_lcdSetShowingSize
                0x02032ea4                hal_lcdSetRoate
                0x02032ebc                hal_lcdDealBuffer
                0x02032f70                hal_lcdGetShowingBuffer
                0x02032fd4                hal_lcdGetIdleBuffer
                0x02033014                hal_lcdPreviewStart
                0x02033158                hal_lcdSetFrame
                0x02033180                vch_debug
                0x02033194                hal_lcdSetVCH
                0x0203326c                hal_lcdUpdataVCH
                0x02033368                hal_lcdSwitchFrame2
                0x020335e8                hal_lcdPreSetPIPEnable
                0x02033608                hal_lcdSetPIPEnable
                0x02033640                hal_lcdGetResolution
                0x020336c4                hal_lcdGetOSDShowingResolution
                0x02033720                hal_lcdGetOSDShowingPosition
                0x0203377c                hal_lcdGetShowingRotate
                0x020337ac                hal_lcdGetBufferResolution
                0x02033808                hal_lcdGetVideoPos
                0x02033864                deocode_done
                0x020338c4                hal_lcd_get_next_frame
                0x02033974                lcd_struct_get
                0x02033994                hal_lcdFrameEndCallBack
                0x020339e0                hal_lcdRegister
                0x02034078                hal_lcd_lsawtooth
                0x02034098                hal_lcdSetCsiCrop
 .text          0x020340fc      0x75c ./Debug/src_hal_osd.c.o
                0x020340fc                hal_osdGetIdleRotateBuffer
                0x02034120                hal_osdGetIdleCmpBuffer
                0x02034144                hal_osdGetIdleDispBuffer
                0x02034168                hal_osdBufferRelease
                0x02034190                hal_osdDealBuffer
                0x02034210                hal_osdInit
                0x020344b4                hal_osdGetCurBuff
                0x020344f4                hal_osdGetFreeBuff
                0x02034544                hal_osdSetBuff
                0x020345ac                hal_osdEnable
                0x020345e8                hal_osdSetAddr
                0x02034624                hal_osdSetBuffer
                0x020346a4                hal_osdSetPosition
                0x020346ec                hal_osdSetPalette
                0x02034724                hal_osdSetSize
                0x02034764                hal_osdSetAlpha
                0x020347a4                hal_osdGetBufferResolution
                0x02034808                hal_deSet_DE_CCM
                0x02034830                hal_deSet_DE_SAJ
 .text          0x02034858      0xc70 ./Debug/src_hal_rtc.c.o
                0x02034884                hal_rtcCallBackRegister
                0x020348e4                hal_rtcCallBackRelease
                0x02034920                hal_rtcUninit
                0x0203495c                hal_rtcTimeGet
                0x02034978                hal_rtcTimeGetExt
                0x020349ac                hal_rtcSecondGet
                0x020349cc                hal_rtcTime2String
                0x02034c80                hal_rtcTime2StringExt
                0x02034ce4                hal_rtcLeapYear
                0x02034f00                hal_rtcTime
                0x02035014                hal_rtcInit
                0x0203513c                hal_rtcSecondSet
                0x02035178                hal_rtcValue
                0x02035288                hal_rtcTimeSet
                0x02035310                hal_rtcAlarmSet
                0x020353a0                hal_rtcAlarmSetExt
                0x02035444                hal_rtcAlarmStatusGet
                0x02035480                hal_vddWKOEnable
                0x020354a4                hal_vddGSENEnable
 .text          0x020354c8      0xad8 ./Debug/src_hal_sd.c.o
                0x02035564                hal_sdStop
                0x020357d8                hal_sdNextLBA
                0x020357f8                hal_sdInit
                0x02035c9c                hal_sdUninit
                0x02035cc8                hal_sdLock
                0x02035d08                hal_sdUnlock
                0x02035d34                hal_sdCheck
                0x02035da8                hal_sdSetCardState
                0x02035dc8                hal_sdGetCardState
                0x02035de8                hal_sdGetBusWidth
                0x02035e08                hal_sdCapacity
                0x02035e28                hal_sdExist
                0x02035e50                hal_sdWrite
                0x02035ef0                hal_speed_callback
                0x02035f20                hal_sdRead
 .text          0x02035fa0      0xad4 ./Debug/src_hal_spi.c.o
                0x02035fa0                hal_spiIOShare
                0x02035fb8                hal_spiIOCheck
                0x02035fcc                hal_spiInit
                0x02035ff8                hal_spiSendByte
                0x0203601c                hal_spiSend
                0x0203603c                hal_spiRecvByte
                0x0203605c                hal_spiRecv
                0x0203609c                hal_spiCSConfig
                0x020360c0                hal_spiFlashReadID
                0x02036120                hal_spiFlashWriteEnable
                0x02036154                hal_spiFlashWait
                0x020361d8                hal_spiFlashReadPage
                0x02036250                hal_spiFlashRead
                0x02036318                hal_spiFlashWritePage
                0x02036398                hal_spiFlashWrite
                0x02036434                hal_spiFlashEraseSector
                0x020364a0                hal_spiFlashEraseBlock
                0x02036504                hal_spiFlashEraseChip
                0x02036540                spi_udisk_jpg_num
                0x02036560                spi_udisk_write_jpg
                0x02036790                spi_udisk_del_jpg
                0x02036824                spi_udisk_read_jpg_size
                0x0203683c                spi_udisk_read_jpg
                0x020368d8                spi_udisk_get_list_idx
                0x02036920                spi_udisk_format
                0x020369b8                spi_udisk_init
                0x02036a48                spi_udisk_jpg_free_num
 .text          0x02036a74      0x128 ./Debug/src_hal_timer.c.o
                0x02036a74                hal_timerStart
                0x02036a98                hal_timerStop
                0x02036abc                hal_timerEnable
                0x02036af4                hal_timerTickEnable
                0x02036b2c                hal_timerTickGet
                0x02036b4c                hal_timerPWMStart
                0x02036b78                hal_timerPWMStop
 .text          0x02036b9c      0x67c ./Debug/src_hal_uart.c.o
                0x02036c00                hal_uartIOShare
                0x02036c40                hal_uartIOShareCheck
                0x02036c88                hal_uartInit
                0x02036cd8                hal_uartSendData
                0x02036cfc                hal_uartRXIsrRegister
                0x02036d1c                uart_PutChar_n
                0x02036d50                uart_PutStr
                0x02036d90                uart_Put_hex
                0x02036ebc                uart_Put_udec
                0x02036f50                uart_Put_dec
                0x02036ff8                uart_Printf
                0x0203713c                uart_PrintfBuf
                0x020371d4                hal_uartPrintString
 .text          0x02037218      0x64c ./Debug/src_hal_watermark.c.o
                0x02037280                hal_watermarkInit
                0x02037330                hal_watermarkClose
                0x020373c8                hal_watermarkClear
                0x02037448                hal_watermarkOpen
                0x020374e8                hal_watermarkColor
                0x0203753c                hal_watermarkAddr
                0x02037554                hal_watermarkSize
                0x020375a0                hal_watermarkPosition
                0x020375ec                hal_watermarkCallbackRegister
                0x02037634                hal_watermarkRam
                0x020376d4                hal_watermarkEnable
                0x02037844                hal_watermarkBPos_Adjust
 .text          0x02037864      0x3c4 ./Debug/src_hal_sys.c.o
                0x020378ac                hal_sysInit
                0x020379c8                hal_sysMemPrint
                0x020379f8                hal_sysMemMalloc
                0x02037ac8                hal_sysMemFree
                0x02037bbc                hal_sysMemRemain
 .text          0x02037c28      0xa6c ./Debug/src_hal_auadc.c.o
                0x02037c28                _hal_auadcCallBackEnd
                0x02037d24                _hal_auadcCallBackHalf
                0x02037d7c                hal_audc_33ms_syncnt_clr
                0x02037da8                hal_audc_stamp_cal
                0x02037dd4                hal_audc_stamp_out
                0x02037e28                hal_audc_stamp_next
                0x02037e84                hal_auadcCallBackEnd
                0x02037f00                hal_auadcInit
                0x02037f48                hal_auadcMemInit
                0x02037fe4                hal_auadcMemUninit
                0x02038058                hal_auadc_cnt
                0x02038088                _hal_auadcStartForUAC
                0x02038168                hal_auadcStartForWAV
                0x02038180                hal_auadcStartForAVI
                0x020382a4                hal_auadcBufferGet
                0x02038384                hal_auadcBufferfree
                0x020383b0                hal_auadcStop
                0x020383d8                hal_auadcBufferRelease
                0x02038400                hal_auadcUACProcess
                0x020384e0                hal_adcBuffer_prefull
                0x02038544                hal_adcBuffer_halffull
                0x0203855c                hal_adc_volume_set
                0x0203857c                hal_uac_send
                0x020385e0                hal_auadcStartForUAC
 .text          0x02038694     0x31c0 ./Debug/src_hal_mjpeg.c.o
                0x02038694                hal_mjpegStart
                0x020386c4                hal_save_frame_isr
                0x02038870                hal_mjpeg_manual_on
                0x020388f0                hal_mjpegQualityCheck
                0x020389a0                hal_mjpegCallback_state
                0x020389dc                hal_mjpegCallback
                0x02038c1c                hal_mjpeg_manual_fdown
                0x02039020                hal_jA_fcnt_get
                0x02039050                hal_mjpeg_mallocbuf
                0x02039070                hal_mjpegEncodeResolutionImageQuad
                0x020390b4                hal_mjpegSrcCSI
                0x020391f8                hal_mjpegSrcRam
                0x0203920c                hal_mjpegSrcColorBar
                0x02039294                hal_Cut_SDR_SrcCSI
                0x02039368                hal_mjpegMemInit
                0x0203948c                hal_mjpegMemUninit
                0x0203950c                hal_mjpegEncodeInit
                0x02039570                hal_mjpegEncodeUninit
                0x020395c0                hal_mjpegEncodeResolution
                0x020395fc                hal_mjpegEncodeResolutionImage
                0x02039638                hal_mjpegSizecalculate
                0x02039664                imageGetYuvAddr
                0x02039698                hal_mjpeg_get_num
                0x020396b8                imageGetYuvLen
                0x020396d8                hal_mjpeg_rev_buf_init
                0x02039794                hal_mjpeg_rev_buf_malloc
                0x02039800                hal_mjpeg_rev_buf_free
                0x0203984c                hal_mjpeg_queue_init
                0x020398ec                hal_mjpeg_post_msg
                0x0203997c                hal_mjpeg_manual_quad_on
                0x020399e4                hal_mjpeg_manual_quad_fdown
                0x02039bec                hal_mjpeg_manual_get_csi_yuv_sta
                0x02039c0c                hal_mjpeg_software_handle_csi_yuvbuf
                0x02039c74                hal_mjpegUVCStart
                0x02039f84                hal_mjpegPhotoStart
                0x0203a378                hal_mjpegAVIStart
                0x0203a794                hal_mjpegRawDataGet
                0x0203a7ac                hal_mjpegRawBuffer_prefull
                0x0203a81c                hal_mjpegRawBuffer_halffull
                0x0203a88c                hal_mjpegRawBufferfree
                0x0203a8b4                hal_mjpegRawBufferGet
                0x0203aa24                hal_mjpegRawDataSet
                0x0203aa4c                hal_mjpegHeaderParse
                0x0203b0d8                hal_mjpegDecodeGetResolution
                0x0203b120                hal_mjpegDecodeSetResolution
                0x0203b144                hal_mjpeglDecodeGetResolution
                0x0203b17c                hal_mjpeglDecodeSetResolution
                0x0203b1a8                hal_mjpegDecodeStatusCheck
                0x0203b1c8                hal_mjpegDecodeErrorCheck
                0x0203b1e8                hal_mjpegDecodeMiniSize
                0x0203b36c                hal_mjpegDecodeStop
                0x0203b38c                hal_mjpegDecodeReset
                0x0203b3b8                hal_mjpegDecodePicture
                0x0203b428                hal_mjpegDecodeNoIsr
                0x0203b494                hal_mjpg_scale_down
                0x0203b5ac                hal_mjpegDecodeParse
                0x0203b5dc                hal_mjpegDecodeOneFrame
                0x0203b634                hal_mjpegDecodeOneFrame_Ext
                0x0203b6bc                hal_mjpegDecodeRestart_Ext
                0x0203b728                hal_mjpegDecodeOneFrame_Fast
                0x0203b7ec                hal_mjpegDecodeODma1Cfg
                0x0203b810                hal_curBuffer_clear
 .text          0x0203b854       0x34 ./Debug/src_hal_int.c.o
                0x0203b854                hal_intInit
 .text          0x0203b888        0x0 ./Debug/src_hal_wdt.c.o
 .text          0x0203b888      0x4bc ./Debug/src_hal_stream.c.o
                0x0203b888                hal_streamInit
                0x0203b980                hal_streamMalloc
                0x0203ba68                hal_streamIn_Drop
                0x0203bacc                hal_streamIn
                0x0203bb68                hal_streamOut
                0x0203bbf4                hal_streamOut_next
                0x0203bc84                hal_streamfree
                0x0203bd2c                hal_stream_size
 .text          0x0203bd44        0x0 ./Debug/src_hal_emi.c.o
 .text          0x0203bd44      0x1a8 ./Debug/src_hal_osdcmp.c.o
                0x0203bdbc                hal_osdcmpStart
                0x0203bea0                hal_osdcmpInit
                0x0203bec8                hal_osdcmpCompOneFrame
 .text          0x0203beec      0x328 ./Debug/src_hal_rotate.c.o
                0x0203c080                hal_rotateInit
                0x0203c0d4                hal_rotateAdd
 .text          0x0203c214      0xa60 ./Debug/src_hal_lcdframe.c.o
                0x0203c214                hal_lcdAddrCalculate
                0x0203c2c0                hal_dispframeInit
                0x0203c884                hal_dispframeVideoCfg
                0x0203cb08                hal_dispframeMalloc
                0x0203cb9c                hal_dispframeFree
                0x0203cc28                hal_dispframeSetCallback
                0x0203cc40                hal_dispframeGetFrameNums
 .text          0x0203cc74      0x748 ./Debug/src_hal_custom_yuv.c.o
                0x0203cd4c                hal_custom_frame_init
                0x0203cd80                hal_custom_frame_create
                0x0203d074                hal_custom_frame_unit
                0x0203d0f8                hal_custom_frame_add_enable
                0x0203d140                hal_custom_frame_add_lcd
                0x0203d1cc                hal_custom_frame_add_mjpeg
 .text          0x0203d3bc      0x584 ./Debug/dusb_hal_usb_api.c.o
                0x0203d3bc                usb_bulk_tx
                0x0203d3e8                usb_bulk_rx
                0x0203d414                hal_usbdReset
                0x0203d444                usb_uvciso_kick
                0x0203d474                usb_uvciso_wait_txdown
                0x0203d498                usb_uaciso_kick
                0x0203d4c8                usb_uaciso_wait_txdown
                0x0203d4ec                uac_on
                0x0203d514                uac_off
                0x0203d534                usb_fun_reg
                0x0203d688                hal_usbdInit
                0x0203d6c8                hal_usbdUninit
                0x0203d6f8                hal_usbdEnable
                0x0203d720                hal_usbdUVCProcess
                0x0203d8ec                hal_usbdProcess
                0x0203d920                hal_usbdCheck
 .text          0x0203d940      0xf98 ./Debug/dusb_hal_usb_dev_enum.c.o
                0x0203d940                usb_ep0_tx
                0x0203d9c0                usbdev_stack_init
                0x0203d9f0                usbdev_rqu
                0x0203da18                usbdev_reset
                0x0203da44                usb_bot_reset
                0x0203da90                usb_check_faddr
                0x0203dadc                usb_ep0_clrrx_pkt0
                0x0203db18                usb_stall_ep
                0x0203dba4                usb_clear_ep
                0x0203dc20                usb_ep0_get_request
                0x0203dc68                usb_ep0_transfer
                0x0203dd1c                usb_ep0_receive
                0x0203dd74                usb_ep0_get_status
                0x0203de84                usb_ep0_clr_feature
                0x0203defc                usb_ep0_set_feature
                0x0203df6c                usb_ep0_set_address
                0x0203e000                usb_ep0_get_configuration
                0x0203e054                usb_ep0_set_configuration
                0x0203e0d0                usb_ep0_get_interface
                0x0203e118                uvc_ready
                0x0203e140                uac_ready
                0x0203e168                usb_ep0_set_interface
                0x0203e2bc                usb_ep0_descriptor
                0x0203e328                usb_ep0_get_descriptor
                0x0203e43c                usb_ep0_standard
                0x0203e4d8                usb_ep0_class_get_lun
                0x0203e51c                usb_ep0_class
                0x0203e624                usb_ep0_request
                0x0203e670                usb_ep0_hal
                0x0203e764                enum_epx_cfg
                0x0203e804                usb_dev_enum_reg
 .text          0x0203e8d8     0x165c ./Debug/dusb_hal_usb_msc.c.o
                0x0203e8d8                msc_epx_cfg
                0x0203e978                ScsiStallAll
                0x0203ea00                ScsiStallIn
                0x0203ea70                ScsiStallout
                0x0203eab4                dev_online
                0x0203eae4                dev_cap
                0x0203eb10                dev_stop
                0x0203eb3c                dev_busy
                0x0203eb68                dev_free
                0x0203eb94                mscSet_Status
                0x0203ebd0                Host_In_Data
                0x0203ec7c                mscCmd_ReadCapacity
                0x0203ed58                mscCmd_ReadFormatCapacity
                0x0203ee50                mscCmd_RequestSense
                0x0203eef0                mscCmd_Inquiry
                0x0203ef48                mscCmd_ModeSense6
                0x0203efd4                mscCmd_TestUnitReady
                0x0203f060                mscCmd_StartStopUnit
                0x0203f0b0                mscCmd_PreventAllowMediumRemoval
                0x0203f0f0                mscCmd_Verify
                0x0203f108                cb_FIFO2mem
                0x0203f1a4                cb_mem2FIFO
                0x0203f230                cb_mem_read
                0x0203f2a8                cb_mem_write
                0x0203f328                cb_mem_rwex
                0x0203f364                mscCmd_ufmod
                0x0203f3b4                sent_csw
                0x0203f474                mscCmd_Read
                0x0203f5a4                mscCmd_Write
                0x0203f700                cbw_update
                0x0203f890                scsi_cmd_analysis
                0x0203fc34                get_cbw
                0x0203fe40                rbc_rec_pkg
                0x0203fed4                rbc_process
 .text          0x0203ff34      0x3b8 ./Debug/dusb_hal_usb_uac.c.o
                0x0203ff34                UacReceiveSetSamplingFreqCallback
                0x0203ff74                uac_epx_cfg
                0x02040008                uac_unit_ctl_hal
                0x02040180                UacHandleToStreaming
                0x02040250                uac_start
                0x020402b0                uac_stop
 .text          0x020402ec      0x878 ./Debug/dusb_hal_usb_uvc.c.o
                0x020402ec                uvc_video_probe_control_callback
                0x02040334                uvc_video_commit_control_callback
                0x0204037c                uvc_still_probe_control_callback
                0x020403c4                uvc_still_commit_control_callback
                0x0204040c                uvc_unit_ctl_ex_hal
                0x020404cc                uvc_unit_ctl_hal
                0x0204058c                uvc_video_probe_control
                0x0204063c                uvc_video_commit_control
                0x020406ec                uvc_still_probe_control
                0x0204079c                uvc_still_commit_control
                0x0204084c                uvc_probe_ctl_hal
                0x020408dc                uvc_epx_cfg
                0x02040930                uvc_on
                0x02040990                uvc_off
                0x020409b4                uvc_pkg_tx
                0x02040a3c                uvc_header
                0x02040a98                uvc_header_fill
                0x02040b44                uvc_get_tgl
 .text          0x02040b64      0x808 ./Debug/audio_audio_playback.c.o
                0x02040b64                audioPlaybackInit
                0x02040c7c                audioPlaybackStop
                0x02040ce4                audioPlaybackISR
                0x02040e68                audioPlaybackUninit
                0x02040ef8                audioPlaybackStart
                0x02041150                audioPlaybackPuase
                0x0204118c                audioPlaybackResume
                0x020411d0                audioPlaybackGetStatus
                0x020411f0                audioPlaybackGetTime
                0x020412c4                audioPlaybackSetVolume
                0x02041318                audioPlaybackGetVolume
                0x02041338                audioPlaybackService
                0x0204134c                audioPlaybackSetStatus
 .text          0x0204136c        0x0 ./Debug/audio_audio_record.c.o
 .text          0x0204136c      0x3e4 ./Debug/audio_ring_buffer.c.o
                0x0204136c                ringBufferRead
                0x020413f8                ringBufferService
                0x0204156c                ringBufferInit
                0x02041630                ringBufferSeek
                0x020416f4                ringBufferPoint
                0x02041730                ringBufferDataSize
 .text          0x02041750     0x13b0 ./Debug/video_video_playback.c.o
                0x0204189c                playBackGetPlayTime
                0x020418c4                videoPlaybackClear
                0x0204193c                videoPlaybackInit
                0x02041a60                videoPlaybackDecodeWait
                0x02041aac                videoPlaybackStop
                0x02041b88                videoPlaybackDacISR
                0x02041d10                videoPlaybackUninit
                0x02041dd4                videoPlaybackPuase
                0x02041e3c                videoPlaybackResume
                0x02041e84                videoPlaybackGetStatus
                0x02041ea4                videoPlaybackSetVolume
                0x02041ef8                videoPlaybackGetVolume
                0x02041f18                videoPlaybackGetTime
                0x02041f38                videoPlaybackGetResolution
                0x02041f54                videoPlaybackService
                0x020426dc                videoPlaybackStart
                0x02042a30                videoPlaybackFastForward
                0x02042a98                videoPlaybackFastBackward
 .text          0x02042b00     0x163c ./Debug/video_video_record.c.o
                0x02042b94                video_avi_write
                0x02042bc8                video_avi_seek
                0x02042e2c                videoRecordImageWatermark
                0x02042ec4                videoRecordInit
                0x02043030                videoRecordUninit
                0x020430a8                videoRecordFileStart
                0x02043254                videoRecordFileStop
                0x020433f8                videoRecordFileError
                0x02043468                videoRecordStart
                0x020435d4                videoRecordStop
                0x0204365c                videoRecordGetTimeSec
                0x0204369c                videoRecordError
                0x02043708                videoRecordRestart
                0x02043734                videoRecordRestart2
                0x02043760                videoRecordPuase
                0x02043778                videoRecordResume
                0x02043790                videoRecordGetStatus
                0x020437b0                videoRecordGetTime
                0x020437f4                videoRecordService
                0x02043f30                videoRecordCmdSet
                0x02044000                videoRecordFrameEnGet
                0x02044020                videoRecordSizePreSec
                0x020440a4                videoRecordTakePhoto
                0x020440e8                videoRecordTakePhotoStatus
                0x02044108                videoRecordSetPhotoStatus
                0x02044128                pt_javgsize
 .text          0x0204413c      0x52c ./Debug/image_image_decode.c.o
                0x0204413c                imageDecodeInit
                0x02044154                imageDecodeUninit
                0x0204416c                imageDecodeStart
                0x02044620                imageDecodeGetResolution
                0x02044644                imagelDecodeGetResolution
 .text          0x02044668      0x33c ./Debug/image_image_encode.c.o
                0x02044668                imageEncodeInit
                0x02044680                imageEncodeUninit
                0x02044698                imageEncodeStart
 .text          0x020449a4        0x0 ./Debug/wav_alaw.c.o
 .text          0x020449a4        0x0 ./Debug/wav_imaadpcm.c.o
 .text          0x020449a4      0x1e4 ./Debug/wav_pcm.c.o
                0x020449a4                pcm_decode
                0x02044a8c                pcm_encode
 .text          0x02044b88        0x0 ./Debug/wav_ulaw.c.o
 .text          0x02044b88      0xbd8 ./Debug/wav_wav.c.o
                0x02044bdc                wavEncodeInit
                0x02044c5c                wavEncodeParse
                0x02044ef8                wavEncodeEnd
                0x0204500c                wavEncodeGetBlockSize
                0x02045084                wavEncodeOneFrame
                0x02045150                wavEncodeAddSize
                0x02045188                wavDecodeInit
                0x020451d0                wavDecodeGetInfo
                0x020451ec                wavDecodeGetBlockSize
                0x0204521c                wavDecodeGetTotalTime
                0x0204523c                wavDecodeGetSamplerate
                0x0204525c                wavDecodeGetCurTime
                0x020452ec                wavDecodeParse
                0x0204563c                wavDecodeOneFrame
 .text          0x02045760      0x18c ./Debug/stream_stream.c.o
                0x02045760                streamSprintf
                0x02045894                streamFont
 .text          0x020458ec     0x1500 ./Debug/cmos_sensor_cmos_sensor.c.o
                0x020458ec                sensor_iic_enable
                0x0204590c                sensor_iic_disable
                0x02045920                sensor_iic_write
                0x0204599c                sensor_iic_read
                0x02045a2c                sensor_iic_info
                0x02045a70                SensorGetName
                0x02045aa4                sensorDirection
                0x02045b24                sensor100b
                0x02045b60                Sensor_DebugRegister
                0x02045bcc                usb_cut_raw
                0x02045be0                Sensor_common_Get
                0x02045bf4                Sensor_common_Set
                0x02045c08                isp_debug_write
                0x02045c1c                isp_debug_read
                0x02045c30                cmos_spec_color
                0x02046774                sensor_rotate
                0x020467fc                sensorInit
                0x02046c04                sensorInit_table
                0x02046c3c                sensorChange
 .text          0x02046dec        0x0 ./Debug/cmos_sensor_SENSOR_BF3a03.c.o
 .text          0x02046dec        0x0 ./Debug/cmos_sensor_SENSOR_BF2013.c.o
 .text          0x02046dec        0x0 ./Debug/cmos_sensor_SENSOR_BF3703.c.o
 .text          0x02046dec        0x0 ./Debug/cmos_sensor_SENSOR_GC0307.c.o
 .text          0x02046dec        0x0 ./Debug/cmos_sensor_SENSOR_GC0308.c.o
 .text          0x02046dec        0x0 ./Debug/cmos_sensor_SENSOR_GC0309.c.o
 .text          0x02046dec        0x0 ./Debug/cmos_sensor_SENSOR_GC0328.c.o
 .text          0x02046dec        0x0 ./Debug/cmos_sensor_SENSOR_OV7670.c.o
 .text          0x02046dec        0x0 ./Debug/cmos_sensor_SENSOR_SP0838.c.o
 .text          0x02046dec        0x0 ./Debug/cmos_sensor_SENSOR_SP0A18.c.o
 .text          0x02046dec        0x0 ./Debug/cmos_sensor_SENSOR_GC0329.c.o
 .text          0x02046dec        0x0 ./Debug/cmos_sensor_SENSOR_SIV100B.c.o
 .text          0x02046dec        0x0 ./Debug/tft_lcd_lcd_mcu_st7789P3.c.o
 .text          0x02046dec        0x0 ./Debug/cmos_sensor_SENSOR_BF20A6.c.o
 .text          0x02046dec        0x0 ./Debug/tft_lcd_lcd_mcu_st7789.c.o
 .text          0x02046dec      0x248 ./Debug/tft_lcd_tft_lcd.c.o
                0x02046dec                lcd_para_init
                0x02046f40                lcdInit
                0x02046f70                lcd_header_get
                0x02046f90                devLcdOp_get
                0x02046fb0                LcdGetName
                0x02046fe4                lcd_debug_write
                0x02046ff8                lcd_debug_read
                0x0204700c                lcdreg_debug_toggle
                0x02047020                lcdreg_debug_write
 .text          0x02047034        0x0 ./Debug/tft_lcd_lcd_mcu_ili9328.c.o
 .text          0x02047034        0x0 ./Debug/tft_lcd_lcd_mcu_st7789v.c.o
 .text          0x02047034        0x0 ./Debug/tft_lcd_lcd_mcu_hx8352c.c.o
 .text          0x02047034        0x0 ./Debug/tft_lcd_lcd_mcu_9225G.c.o
 .text          0x02047034        0x0 ./Debug/tft_lcd_lcd_mcu_nv3030b.c.o
 .text          0x02047034      0x2c0 ./Debug/nvfs_nvfs.c.o
                0x02047034                nv_port_read
                0x02047054                nv_init
                0x0204713c                nv_uninit
                0x02047154                nv_configAddr
                0x020471b0                nv_open
                0x02047244                nv_size
                0x020472c4                nv_read
 .text          0x020472f4      0x69c ./Debug/Maxlib_max_user.c.o
                0x020472f4                user_string_size_get
                0x02047318                user_string_data_get
                0x02047330                user_get_icon
                0x02047354                user_get_icon_addr
                0x02047374                user_get_icon_line
                0x020473c0                user_get_iconSize
                0x020473e4                lcdBuffCopy
                0x0204749c                osd_conver
                0x02047578                osdBuffCopy
                0x020475d0                useDoubleBuff
                0x02047704                initDrawBuffWH
                0x02047758                getDrawBuff
                0x020477a0                gameGetDrawBuff
                0x02047800                drawUIService
                0x02047910                drawUIService1
 .text          0x02047990     0x21ac ./Debug/Maxlib_uiDraw.c.o
                0x02047990                resGetImageAddrAndSize
                0x020479b0                preloadIconInit
                0x020479e8                resBuffInit
                0x02047a90                resBuffUninit
                0x02047b10                resBuffConut
                0x02047b54                resUpdateIconBuff
                0x02047bf0                resGetImageFromIconBuff
                0x02047d2c                resGetImageData
                0x02047d78                resGetStringInfor
                0x02047e4c                resGetCharInfor
                0x02047f70                calPhoneticPos
                0x02047ff0                dcacheFlush
                0x02048224                drawLine
                0x020486e4                drawRectangle
                0x02048938                drawRectangleToBuf
                0x02048b28                drawChar
                0x02048ed0                drawNotIntersect
                0x02049070                drawImage
                0x020494a4                drawString
 .text          0x02049b3c      0x300 ./Debug/std_misc.c.o
                0x02049b3c                CountToString
                0x02049c2c                stringInster
                0x02049c84                strTransform
                0x02049cf8                HexToString
                0x02049d80                NumberToString
 .text          0x02049e3c        0x0 ./Debug/std_std_math.c.o
 .text          0x02049e3c        0x0 ./Debug/std_str.c.o
 .text          0x02049e3c       0xdc ./Debug/res_ascii.c.o
                0x02049e3c                ascii_draw_get
 .text          0x02049f18        0x0 ./Debug/res_ascii_default.c.o
 .text          0x02049f18       0xc0 ./Debug/res_ascii_default_draw.c.o
                0x02049f18                ascii_default_get
 .text          0x02049fd8      0x7e8 ./Debug/res_R.c.o
                0x02049fd8                R_loadResource
                0x0204a034                R_getData
                0x0204a088                R_freeData
                0x0204a0c4                R_getSize
                0x0204a118                R_getDataAndSize
                0x0204a16c                R_getTColor
                0x0204a1ac                R_getAsciiCharSize
                0x0204a230                R_getAsciiStringSize
                0x0204a310                R_drawAsciiChar
                0x0204a488                R_drawAsciiChar_border
                0x0204a6dc                R_drawAsciiString
 .text          0x0204a7c0      0x440 ./Debug/res_R_icon.c.o
                0x0204a83c                R_iconMemGet
                0x0204a884                R_iconLoadResource
                0x0204a8fc                R_iconGetData
                0x0204a9f0                R_iconGetSize
                0x0204aaac                R_iconGetDataAndSize
                0x0204ab5c                R_iconFreeData
                0x0204abb0                R_iconGetTColor
 .text          0x0204ac00      0x23c ./Debug/res_R_string.c.o
                0x0204ac7c                R_stringLoadResource
                0x0204acfc                R_stringGetData
                0x0204ad60                R_stringGetSize
                0x0204ae08                R_stringGetDataAndSize
 .text          0x0204ae3c      0x464 ./Debug/res_unicode_font.c.o
                0x0204ae3c                MP3_unicode_font_init
                0x0204af58                MP3_unicode_font_uninit
                0x0204afbc                MP3_get_unicode_idx
                0x0204b114                MP3_get_unicode_str_size
                0x0204b20c                MP3_unicode_draw_get
 .text          0x0204b2a0        0x0 ./Debug/res_ascii_num3.c.o
 .text          0x0204b2a0       0xc0 ./Debug/res_ascii_num3_draw.c.o
                0x0204b2a0                ascii_num3_get
 .text          0x0204b360     0x1c60 ../bwlib\liblimage.a(imageL_encode.o)
                0x0204b480                hal_mjpegPhotoQuadCfgQuarter
                0x0204b500                hal_mjpegStitchQuadThumb
                0x0204b5b4                hal_mjpegStitchQuadUpper
                0x0204baf0                hal_mjpegStitchQuadLower
                0x0204bdf8                hal_mjpegPhotoQuadStartThumbnail
                0x0204c0f4                hal_mjpegPhotoQuadStartQuarter
                0x0204c75c                hal_imageWriteFile
                0x0204c8c8                imageEncodeQuadStart
 .text          0x0204cfc0     0x2830 ../bwlib\libeffect.a(user_effect.o)
                0x0204cfc0                warpHandle
                0x0204d16c                trilateral_16_window
                0x0204d498                stream_10_window
                0x0204d8cc                rismatic_multiwindow
                0x0204dfa8                hexagon_multiwindow
                0x0204e8f8                yuv420_pencil_sketch
                0x0204ebdc                CLAHE
                0x0204f3b0                BayerDithering
                0x0204f444                FloydSteinbergDithering
 .text          0x0204f7f0     0x107c ../bwlib\libmp3.a(mp3_decode_api.o)
                0x0204fbb4                mp3PlaybackDacISR
                0x0204fdd8                mp3_dac_memInit
                0x0204ff78                mp3_dac_memUinit
                0x0205001c                mp3_dacPlay_Start
                0x020502c0                mp3_dacPlay_Pause
                0x020502f8                mp3_dacPlay_Stop
                0x0205033c                mp3_play_sta
                0x0205036c                mp3_flie_playtime
                0x02050434                mp3_file_time_cal
                0x020504b4                mp3_decode
                0x020504f4                mp3_decode_play
                0x020506bc                mp3_decode_play_buf
 .text          0x0205086c      0x28c ../bwlib\libmp3.a(decoder.o)
                0x020508bc                mad_decoder_init
                0x02050944                mad_decoder_finish
                0x0205098c                mad_decoder_run
                0x02050ae4                mad_decoder_message
 .text          0x02050af8      0x330 ../bwlib\libmp3.a(stream.o)
                0x02050af8                mad_stream_init
                0x02050b70                mad_stream_finish
                0x02050b84                mad_stream_buffer
                0x02050bc4                mad_stream_skip
                0x02050be4                mad_stream_sync
                0x02050c7c                mad_stream_errorstr
 .text          0x02050e28     0x17e8 ../bwlib\libmp3.a(synth.o)
                0x02052490                mad_synth_mute
                0x020524fc                mad_synth_init
                0x0205253c                mad_synth_frame
 .text          0x02052610      0x3dc ../bwlib\libmp3.a(bit.o)
                0x02052610                mad_bit_init
                0x02052640                mad_bit_length
                0x0205267c                mad_bit_nextbyte
                0x020526a4                mad_bit_skip
                0x0205270c                mad_bit_read
                0x020527f0                mad_bit_crc
 .text          0x020529ec      0xa5c ../bwlib\libmp3.a(frame.o)
                0x02052ec4                mad_header_init
                0x02052f1c                mad_frame_finish
                0x02052f40                mad_header_decode
                0x02053270                mad_frame_decode
                0x0205337c                mad_frame_mute
                0x02053408                mad_frame_init
 .text          0x02053448      0xd14 ../bwlib\libmp3.a(layer12.o)
                0x020535f4                mad_layer_I
                0x020539a8                mad_layer_II
 .text          0x0205415c      0x708 ../bwlib\libmp3.a(timer.o)
                0x02054228                mad_timer_compare
                0x02054284                mad_timer_negate
                0x020542c8                mad_timer_abs
                0x0205432c                mad_timer_set
                0x020544dc                mad_timer_add
                0x02054548                mad_timer_multiply
                0x020545fc                mad_timer_count
                0x020547b8                mad_timer_fraction
                0x02054850                mad_timer_string
 .text          0x02054864     0x3034 ../bwlib\libmp3.a(layer3.o)
                0x02057150                mad_layer_III
 .text          0x02057898        0x0 ../bwlib\libmp3.a(huffman.o)
 .text          0x02057898      0x708 ../bwlib\libsd.a(ax32xx_sd.o)
                0x02057898                ax32xx_sd0Init
                0x020579ec                ax32xx_sd0Uninit
                0x02057a58                ax32xx_sd0SendCmd
                0x02057ba4                ax32xx_sd0BusSet
                0x02057be8                ax32xx_sd0Recv
                0x02057c3c                ax32xx_sd0Send
                0x02057c74                ax32xx_sd0WaitDAT0
                0x02057d04                ax32xx_sd0WaitPend
                0x02057d78                ax32xx_sd0GetRsp
                0x02057d94                ax32xx_sdCRCCheck
                0x02057df4                ax32xx_sd0Buffer
                0x02057e10                ax32xx_sdSetFunc
                0x02057ef4                ax32xx_sd0ClkSet
 .text          0x02057fa0      0x60c ../bwlib\libavi.a(aviEncoder.o)
                0x02057fa0                aviEncodeInit
                0x02058098                aviEncodeUninit
                0x02058144                aviEncodeParse
                0x020581d0                aviEncodeAddIdx
                0x02058254                aviEncodeSetIdx1
                0x020582dc                aviEncodeFrameTag
                0x02058348                aviEncodeAddOffset
                0x020583a0                aviEncodeGetIdx1Length
                0x020583ec                aviEncodeGetFrameCount
                0x02058438                aviEncodeEnd
                0x020584b4                aviEncodeService
                0x02058530                aviEncodeAddofs
 .text          0x020585ac      0x554 ../bwlib\libavi.a(encoder_std.o)
                0x020585f4                avi_standardAddIndex
                0x020587d4                avi_standardEnd
 .text          0x02058b00     0x1258 ../bwlib\libavi.a(encoder_odml.o)
                0x02059d10                avi_odmlAddoffset
 .text          0x02059d58      0x8e0 ../bwlib\libavi.a(aviDecoder.o)
                0x02059d58                aviDecodeIdx1QInit
                0x02059d84                aviDecodeIdx1Cpy
                0x02059db8                aviDecodeIdx1QIn
                0x02059e34                aviDecodeIdx1QOut
                0x02059eb0                aviDecodeCacheInit
                0x02059ee4                aviDecodeCacheRead
                0x0205a014                aviDecodeInit
                0x0205a078                aviDecodeService
                0x0205a0b4                aviDecodeParse
                0x0205a4e0                aviDecodeOneFrame
                0x0205a51c                aviDecodeFast
                0x0205a554                aviDecodeGetTime
                0x0205a590                aviDecodeGetAudioSampleRate
                0x0205a5b0                aviDecodeGetVideoFrameTime
                0x0205a5d0                aviDecodeGetResolution
                0x0205a618                aviDecodeGetFrameIndex
 .text          0x0205a638      0x4d4 ../bwlib\libavi.a(decoder_std.o)
 .text          0x0205ab0c      0x954 ../bwlib\libavi.a(decoder_odml.o)
 .text          0x0205b460      0x8a0 ../bwlib\libfs.a(fs.o)
                0x0205b460                fs_nodeinit
                0x0205b4b0                fs_mount
                0x0205b588                open
                0x0205b650                close
                0x0205b6c8                read
                0x0205b740                write
                0x0205b7b8                lseek
                0x0205b838                fs_readsector
                0x0205b8b8                fs_writesector
                0x0205b938                fs_getsector
                0x0205ba1c                fs_getclustersize
                0x0205ba40                fs_getcluster
                0x0205bab4                fs_size
                0x0205bb00                fs_size2
                0x0205bb4c                fs_free_size
                0x0205bb9c                fs_fastseek_init
                0x0205bc1c                fs_merge
                0x0205bc34                fs_bound
                0x0205bc4c                fs_tell
                0x0205bc98                fs_sync
 .text          0x0205bd00      0x268 ../bwlib\libfs.a(diskio.o)
                0x0205bd00                get_fattime
                0x0205bd78                fs_init
                0x0205bdf4                disk_status
                0x0205be34                disk_initialize
                0x0205be70                disk_read
                0x0205beac                disk_write
                0x0205bee8                disk_ioctl
 .text          0x0205bf68     0x5340 ../bwlib\libfs.a(ff.o)
                0x0205d6cc                clst2sect
                0x0205ea74                f_mount
                0x0205eb24                f_open
                0x0205eebc                f_read
                0x0205f174                f_write
                0x0205f494                f_sync
                0x0205f5bc                f_close
                0x0205f608                f_lseek
                0x0205f9e0                f_opendir
                0x0205fad0                f_closedir
                0x0205fb0c                f_readdir
                0x0205fbb0                f_findnext
                0x0205fc54                f_findfirst
                0x0205fca8                f_stat
                0x0205fd30                f_getfree
                0x0205fef4                f_truncate
                0x02060050                f_unlink
                0x0206018c                f_mkdir
                0x02060360                f_rename
                0x02060528                f_chmod
                0x020605d8                f_utime
                0x02060678                f_mkfs
                0x020611d0                FEX_getlink_clust
                0x0206120c                Ascii_to_Unicode
 .text          0x020612a8      0x288 ../bwlib\libfs.a(ffunicode.o)
                0x020612a8                ff_uni2oem
                0x02061370                ff_oem2uni
                0x02061408                ff_wtoupper
 .text          0x02061530       0xb0 C:/MinGW-4.7.1/or1k-elf/lib/no-delay\libc.a(lib_a-memcmp.o)
                0x02061530                memcmp
 .text          0x020615e0      0x158 C:/MinGW-4.7.1/or1k-elf/lib/no-delay\libc.a(lib_a-memcpy.o)
                0x020615e0                memcpy
 .text          0x02061738      0x1a0 C:/MinGW-4.7.1/or1k-elf/lib/no-delay\libc.a(lib_a-memmove.o)
                0x02061738                memmove
 .text          0x020618d8      0x15c C:/MinGW-4.7.1/or1k-elf/lib/no-delay\libc.a(lib_a-memset.o)
                0x020618d8                memset
 .text          0x02061a34       0xa4 C:/MinGW-4.7.1/or1k-elf/lib/no-delay\libc.a(lib_a-strcasecmp.o)
                0x02061a34                strcasecmp
 .text          0x02061ad8       0xb8 C:/MinGW-4.7.1/or1k-elf/lib/no-delay\libc.a(lib_a-strcat.o)
                0x02061ad8                strcat
 .text          0x02061b90      0x1fc C:/MinGW-4.7.1/or1k-elf/lib/no-delay\libc.a(lib_a-strchr.o)
                0x02061b90                strchr
 .text          0x02061d8c      0x104 C:/MinGW-4.7.1/or1k-elf/lib/no-delay\libc.a(lib_a-strcmp.o)
                0x02061d8c                strcmp
 .text          0x02061e90       0xc0 C:/MinGW-4.7.1/or1k-elf/lib/no-delay\libc.a(lib_a-strcpy.o)
                0x02061e90                strcpy
 .text          0x02061f50       0xe4 C:/MinGW-4.7.1/or1k-elf/lib/no-delay\libc.a(lib_a-strlen.o)
                0x02061f50                strlen
 .text          0x02062034      0x178 C:/MinGW-4.7.1/or1k-elf/lib/no-delay\libc.a(lib_a-strncmp.o)
                0x02062034                strncmp
 .text          0x020621ac      0x9ac C:/MinGW-4.7.1/or1k-elf/lib/no-delay\libc.a(lib_a-strstr.o)
                0x02062718                strstr
 .text          0x02062b58        0x0 C:/MinGW-4.7.1/or1k-elf/lib/no-delay\libc.a(lib_a-ctype_.o)
 .text          0x02062b58      0x134 C:/MinGW-4.7.1/or1k-elf/lib/no-delay\libc.a(lib_a-memchr.o)
                0x02062b58                memchr
 .text          0x02062c8c       0x7c C:/MinGW-4.7.1/lib/gcc/or1k-elf/4.9.1/no-delay\libgcc.a(_muldi3.o)
                0x02062c8c                __muldi3
 .text          0x02062d08      0x7d0 C:/MinGW-4.7.1/lib/gcc/or1k-elf/4.9.1/no-delay\libgcc.a(_udivdi3.o)
                0x02062d08                __udivdi3
 .text          0x020634d8      0x628 C:/MinGW-4.7.1/lib/gcc/or1k-elf/4.9.1/no-delay\libgcc.a(addsf3.o)
                0x020634d8                __addsf3
 .text          0x02063b00      0x4bc C:/MinGW-4.7.1/lib/gcc/or1k-elf/4.9.1/no-delay\libgcc.a(divsf3.o)
                0x02063b00                __divsf3
 .text          0x02063fbc       0xd0 C:/MinGW-4.7.1/lib/gcc/or1k-elf/4.9.1/no-delay\libgcc.a(eqsf2.o)
                0x02063fbc                __eqsf2
                0x02063fbc                __nesf2
 .text          0x0206408c      0x148 C:/MinGW-4.7.1/lib/gcc/or1k-elf/4.9.1/no-delay\libgcc.a(gesf2.o)
                0x0206408c                __gesf2
                0x0206408c                __gtsf2
 .text          0x020641d4      0x480 C:/MinGW-4.7.1/lib/gcc/or1k-elf/4.9.1/no-delay\libgcc.a(mulsf3.o)
                0x020641d4                __mulsf3
 .text          0x02064654       0x8c C:/MinGW-4.7.1/lib/gcc/or1k-elf/4.9.1/no-delay\libgcc.a(fixunssfsi.o)
                0x02064654                __fixunssfsi
 .text          0x020646e0      0x188 C:/MinGW-4.7.1/lib/gcc/or1k-elf/4.9.1/no-delay\libgcc.a(floatsisf.o)
                0x020646e0                __floatsisf
 .text          0x02064868      0x150 C:/MinGW-4.7.1/lib/gcc/or1k-elf/4.9.1/no-delay\libgcc.a(floatunsisf.o)
                0x02064868                __floatunsisf
 .text          0x020649b8       0xf4 C:/MinGW-4.7.1/lib/gcc/or1k-elf/4.9.1/no-delay\libgcc.a(__udivsi3.o)
                0x020649b8                __udivsi3
                0x020649b8                __udivsi3_internal
 .text          0x02064aac       0x1c C:/MinGW-4.7.1/lib/gcc/or1k-elf/4.9.1/no-delay\libgcc.a(__umodsi3.o)
                0x02064aac                __umodsi3
 .text          0x02064ac8        0x0 C:/MinGW-4.7.1/lib/gcc/or1k-elf/4.9.1/no-delay\libgcc.a(_clz.o)
 .text          0x02064ac8       0x84 C:/MinGW-4.7.1/lib/gcc/or1k-elf/4.9.1/no-delay\libgcc.a(_clzsi2.o)
                0x02064ac8                __clzsi2
 *(.rodata*)
 .rodata.str1.1
                0x02064b4c       0x2b ./Debug/main.c.o
                                 0x2f (size before relaxing)
 .rodata.str1.1
                0x02064b77       0x39 ./Debug/resource_manager.c.o
                                 0x3d (size before relaxing)
 .rodata        0x02064bb0        0xc ./Debug/board_bwv1.c.o
 .rodata        0x02064bbc       0x20 ./Debug/display.c.o
 .rodata        0x02064bdc      0x2bc ./Debug/configGetValue.c.o
 .rodata        0x02064e98       0x44 ./Debug/configSystem.c.o
 .rodata.str1.1
                0x02064edc        0xf ./Debug/logo.c.o
 .rodata.str1.1
                0x02064eeb        0xd ./Debug/taskPhotoEncode.c.o
                                 0x19 (size before relaxing)
 .rodata        0x02064ef8       0x10 ./Debug/taskPhotoEncode.c.o
 .rodata        0x02064f08       0x20 ./Debug/taskPhotoEncodeMsg.c.o
 .rodata.str1.1
                0x02064f28       0x32 ./Debug/taskPhotoEncodeMsg.c.o
                                 0x3d (size before relaxing)
 *fill*         0x02064f5a        0x2 
 .rodata        0x02064f5c       0x10 ./Debug/taskPlayBack.c.o
 .rodata.str1.1
                0x02064f6c        0xa ./Debug/taskPlayBack.c.o
 .rodata.str1.1
                0x02064f76       0x1f ./Debug/taskPlayBackMsg.c.o
                                 0x54 (size before relaxing)
 *fill*         0x02064f95        0x3 
 .rodata        0x02064f98       0x10 ./Debug/taskPowerOff.c.o
 .rodata.str1.1
                0x02064fa8        0xa ./Debug/taskPowerOff.c.o
 .rodata.str1.1
                0x02064fb2        0x5 ./Debug/taskSysScanDevice.c.o
                                 0x13 (size before relaxing)
 .rodata.str1.1
                0x02064fb7        0xb ./Debug/taskUsbDevice.c.o
 *fill*         0x02064fc2        0x2 
 .rodata        0x02064fc4       0x28 ./Debug/taskUsbDevice.c.o
 .rodata.str1.1
                0x02064fec        0xe ./Debug/taskVideoRecord.c.o
                                 0x21 (size before relaxing)
 *fill*         0x02064ffa        0x2 
 .rodata        0x02064ffc       0x10 ./Debug/taskVideoRecord.c.o
 .rodata        0x0206500c       0x20 ./Debug/taskVideoRecordMsg.c.o
 .rodata.str1.1
                0x0206502c        0x7 ./Debug/taskVideoRecordMsg.c.o
                                 0x12 (size before relaxing)
 *fill*         0x02065033        0x1 
 .rodata        0x02065034        0xc ./Debug/uiMenuDateTimeMsg.c.o
 .rodata.str1.1
                0x02065040       0x15 ./Debug/uiMenuFormatMsg.c.o
                                 0x16 (size before relaxing)
 .rodata.str1.1
                0x00000000       0x16 ./Debug/uiMenuOptionMsg.c.o
 .rodata.str1.1
                0x00000000        0x2 ./Debug/uiTips1Msg.c.o
 .rodata.str1.1
                0x00000000        0x2 ./Debug/uiTipsMsg.c.o
 .rodata.str1.1
                0x02065055       0x13 ./Debug/uiMenuVersionMsg.c.o
 .rodata.str1.1
                0x02065068        0xd ./Debug/taskAudioPlayer.c.o
 .rodata.str1.1
                0x02065075        0xa ./Debug/taskAudioPlayerMsg.c.o
                                 0x13 (size before relaxing)
 *fill*         0x0206507f        0x1 
 .rodata        0x02065080       0x50 ./Debug/taskAudioPlayerMsg.c.o
 .rodata.str1.1
                0x020650d0        0xa ./Debug/taskMainMenu.c.o
 *fill*         0x020650da        0x2 
 .rodata        0x020650dc       0x18 ./Debug/taskMainMenuMsg.c.o
 .rodata        0x020650f4       0x10 ./Debug/taskSettingMenu.c.o
 .rodata.str1.1
                0x02065104        0xd ./Debug/taskSettingMenu.c.o
 *fill*         0x02065111        0x3 
 .rodata        0x02065114       0x28 ./Debug/userInterface.c.o
 .rodata.str1.1
                0x0206513c       0x14 ./Debug/upgrade.c.o
 .rodata        0x02065150       0x3c ./Debug/game_block.c.o
                0x02065150                block_icon_item
 .rodata        0x0206518c       0x20 ./Debug/game_sokoban.c.o
 .rodata        0x020651ac       0x78 ./Debug/game_tetris.c.o
 .rodata        0x02065224      0x134 ./Debug/taskGame.c.o
 .rodata.str1.1
                0x02065358        0x5 ./Debug/taskGame.c.o
 *fill*         0x0206535d        0x3 
 .rodata        0x02065360       0x10 ./Debug/taskGameMenu.c.o
 .rodata.str1.1
                0x02065370        0xa ./Debug/taskGameMenu.c.o
 *fill*         0x0206537a        0x2 
 .rodata        0x0206537c       0x28 ./Debug/taskGameMenuMsg.c.o
 .rodata        0x020653a4       0x28 ./Debug/game_maze.c.o
 .rodata        0x020653cc       0x68 ./Debug/sUI_menuItem.c.o
 .rodata        0x02065434       0x68 ./Debug/sUI_menuItemEx.c.o
 .rodata        0x0206549c       0x68 ./Debug/sUI_menuOption.c.o
 .rodata        0x02065504       0x68 ./Debug/sUI_stringIcon.c.o
 .rodata        0x0206556c       0x60 ./Debug/sUI_tips.c.o
 .rodata.str1.1
                0x020655cc       0x2b ./Debug/sUI_winManage.c.o
 *fill*         0x020655f7        0x1 
 .rodata        0x020655f8       0x64 ./Debug/sUI_widgetManage.c.o
 .rodata        0x0206565c       0xf0 ./Debug/src_ax32xx_int.c.o
 .rodata        0x0206574c       0x18 ./Debug/src_ax32xx_sys.c.o
 .rodata        0x02065764       0x60 ./Debug/src_ax32xx_dma.c.o
                0x02065764                default_cfg
 .rodata        0x020657c4       0x4c ./Debug/src_ax32xx_gpio.c.o
 .rodata        0x02065810       0x50 ./Debug/src_ax32xx_timer.c.o
 .rodata        0x02065860       0x4c ./Debug/src_ax32xx_dac.c.o
                0x02065860                gain
                0x02065874                eq_coeff
 .rodata        0x020658ac      0x9c0 ./Debug/src_jpeg_table.c.o
 .rodata        0x0206626c       0x30 ./Debug/src_ax32xx_usb.c.o
                0x0206626c                ExRADR
                0x02066284                ExTADR
 .rodata        0x0206629c       0xa0 ./Debug/osd_ax32xx_osd.c.o
 .rodata.str1.1
                0x0206633c      0x328 ./Debug/mjpeg_ax32xx_mjpeg.c.o
 .rodata        0x02066664      0x1b4 ./Debug/mjpeg_ax32xx_mjpeg.c.o
                0x02066678                bicCtab
                0x02066698                c_table_chroma
                0x020666d8                belta_table_chroma
                0x02066718                alpha_table_chroma
                0x02066758                c_table_luma
                0x02066798                belta_table_luma
                0x020667d8                alpha_table_luma
 .rodata        0x02066818       0x2c ./Debug/src_hal_dac.c.o
 .rodata.str1.1
                0x02066844        0xa ./Debug/src_hal_lcd.c.o
 *fill*         0x0206684e        0x2 
 .rodata        0x02066850        0xc ./Debug/src_hal_rtc.c.o
 .rodata        0x0206685c       0x14 ./Debug/src_hal_mjpeg.c.o
 .rodata        0x02066870       0x14 ./Debug/src_hal_lcdframe.c.o
 .rodata        0x02066884      0x38c ./Debug/dusb_hal_usb_dev_enum.c.o
                0x020668c8                DEV_QAULIFIER_DESC_DATA
                0x020668d4                UsbStrDescSerialNumber
                0x020668f4                UsbStrDescProduct_0
                0x02066914                UsbStrDescProduct_1
                0x0206693c                UsbStrDescManufacturer
                0x0206694c                UsbLanguageID
                0x02066950                TYPE_COMB_CONFIG
                0x02066a58                uvc_cfg
                0x02066bb4                msc_cfg
                0x02066bd4                TYPE_COMB_DEVICE
                0x02066be8                uvc_dev
                0x02066bfc                msc_dev
 .rodata        0x02066c10       0x30 ./Debug/dusb_hal_usb_msc.c.o
                0x02066c10                MscSenseCode
                0x02066c1c                device_inquiry_data
 .rodata        0x02066c40        0x8 ./Debug/dusb_hal_usb_uac.c.o
                0x02066c40                UacVolCtrlSettings_def
 .rodata        0x02066c48      0xcac ./Debug/dusb_hal_usb_uvc.c.o
                0x02066c48                probe
                0x02066c60                pu_rqu_ex
                0x02066e04                pu_rqu
 .rodata        0x020678f4        0xc ./Debug/video_video_playback.c.o
 .rodata.cst4   0x02067900        0x4 ./Debug/image_image_encode.c.o
 .rodata        0x02067904      0x144 ./Debug/wav_wav.c.o
 .rodata.str1.1
                0x02067a48        0x5 ./Debug/cmos_sensor_cmos_sensor.c.o
 *fill*         0x02067a4d        0x3 
 .rodata        0x02067a50       0xa8 ./Debug/cmos_sensor_cmos_sensor.c.o
                0x02067a50                null_init
                0x02067a98                test_img
 .rodata.str1.1
                0x00000000        0x5 ./Debug/tft_lcd_tft_lcd.c.o
 .rodata        0x02067af8      0xd38 ./Debug/res_ascii_default.c.o
                0x02067af8                ascii_default_126
                0x02067b1c                ascii_default_125
                0x02067b40                ascii_default_124
                0x02067b64                ascii_default_123
                0x02067b88                ascii_default_122
                0x02067bac                ascii_default_121
                0x02067bd0                ascii_default_120
                0x02067bf4                ascii_default_119
                0x02067c18                ascii_default_118
                0x02067c3c                ascii_default_117
                0x02067c60                ascii_default_116
                0x02067c84                ascii_default_115
                0x02067ca8                ascii_default_114
                0x02067ccc                ascii_default_113
                0x02067cf0                ascii_default_112
                0x02067d14                ascii_default_111
                0x02067d38                ascii_default_110
                0x02067d5c                ascii_default_109
                0x02067d80                ascii_default_108
                0x02067da4                ascii_default_107
                0x02067dc8                ascii_default_106
                0x02067dec                ascii_default_105
                0x02067e10                ascii_default_104
                0x02067e34                ascii_default_103
                0x02067e58                ascii_default_102
                0x02067e7c                ascii_default_101
                0x02067ea0                ascii_default_100
                0x02067ec4                ascii_default_99
                0x02067ee8                ascii_default_98
                0x02067f0c                ascii_default_97
                0x02067f30                ascii_default_96
                0x02067f54                ascii_default_95
                0x02067f78                ascii_default_94
                0x02067f9c                ascii_default_93
                0x02067fc0                ascii_default_92
                0x02067fe4                ascii_default_91
                0x02068008                ascii_default_90
                0x0206802c                ascii_default_89
                0x02068050                ascii_default_88
                0x02068074                ascii_default_87
                0x02068098                ascii_default_86
                0x020680bc                ascii_default_85
                0x020680e0                ascii_default_84
                0x02068104                ascii_default_83
                0x02068128                ascii_default_82
                0x0206814c                ascii_default_81
                0x02068170                ascii_default_80
                0x02068194                ascii_default_79
                0x020681b8                ascii_default_78
                0x020681dc                ascii_default_77
                0x02068200                ascii_default_76
                0x02068224                ascii_default_75
                0x02068248                ascii_default_74
                0x0206826c                ascii_default_73
                0x02068290                ascii_default_72
                0x020682b4                ascii_default_71
                0x020682d8                ascii_default_70
                0x020682fc                ascii_default_69
                0x02068320                ascii_default_68
                0x02068344                ascii_default_67
                0x02068368                ascii_default_66
                0x0206838c                ascii_default_65
                0x020683b0                ascii_default_64
                0x020683d4                ascii_default_63
                0x020683f8                ascii_default_62
                0x0206841c                ascii_default_61
                0x02068440                ascii_default_60
                0x02068464                ascii_default_59
                0x02068488                ascii_default_58
                0x020684ac                ascii_default_57
                0x020684d0                ascii_default_56
                0x020684f4                ascii_default_55
                0x02068518                ascii_default_54
                0x0206853c                ascii_default_53
                0x02068560                ascii_default_52
                0x02068584                ascii_default_51
                0x020685a8                ascii_default_50
                0x020685cc                ascii_default_49
                0x020685f0                ascii_default_48
                0x02068614                ascii_default_47
                0x02068638                ascii_default_46
                0x0206865c                ascii_default_45
                0x02068680                ascii_default_44
                0x020686a4                ascii_default_43
                0x020686c8                ascii_default_42
                0x020686ec                ascii_default_41
                0x02068710                ascii_default_40
                0x02068734                ascii_default_39
                0x02068758                ascii_default_38
                0x0206877c                ascii_default_37
                0x020687a0                ascii_default_36
                0x020687c4                ascii_default_35
                0x020687e8                ascii_default_33
                0x0206880c                ascii_default_32
 .rodata        0x02068830     0x52b8 ./Debug/res_ascii_num3.c.o
                0x02068830                ascii_num3_126
                0x02068934                ascii_num3_125
                0x020689b8                ascii_num3_124
                0x02068a3c                ascii_num3_123
                0x02068ac0                ascii_num3_122
                0x02068b84                ascii_num3_121
                0x02068c48                ascii_num3_120
                0x02068d0c                ascii_num3_119
                0x02068e10                ascii_num3_118
                0x02068ed4                ascii_num3_117
                0x02068fd8                ascii_num3_116
                0x0206905c                ascii_num3_115
                0x02069120                ascii_num3_114
                0x020691a4                ascii_num3_113
                0x020692a8                ascii_num3_112
                0x020693ac                ascii_num3_111
                0x020694b0                ascii_num3_110
                0x020695b4                ascii_num3_109
                0x020696f8                ascii_num3_108
                0x0206977c                ascii_num3_107
                0x02069840                ascii_num3_106
                0x020698c4                ascii_num3_105
                0x02069948                ascii_num3_104
                0x02069a4c                ascii_num3_103
                0x02069b50                ascii_num3_102
                0x02069bd4                ascii_num3_101
                0x02069cd8                ascii_num3_100
                0x02069ddc                ascii_num3_99
                0x02069ea0                ascii_num3_98
                0x02069fa4                ascii_num3_97
                0x0206a0a8                ascii_num3_96
                0x0206a12c                ascii_num3_95
                0x0206a1f0                ascii_num3_94
                0x0206a2b4                ascii_num3_93
                0x0206a338                ascii_num3_92
                0x0206a3bc                ascii_num3_91
                0x0206a440                ascii_num3_90
                0x0206a544                ascii_num3_89
                0x0206a648                ascii_num3_88
                0x0206a74c                ascii_num3_87
                0x0206a8d0                ascii_num3_86
                0x0206a9d4                ascii_num3_85
                0x0206aad8                ascii_num3_84
                0x0206abdc                ascii_num3_83
                0x0206ace0                ascii_num3_82
                0x0206ade4                ascii_num3_81
                0x0206af28                ascii_num3_80
                0x0206b02c                ascii_num3_79
                0x0206b170                ascii_num3_78
                0x0206b274                ascii_num3_77
                0x0206b3b8                ascii_num3_76
                0x0206b4bc                ascii_num3_75
                0x0206b5c0                ascii_num3_74
                0x0206b684                ascii_num3_73
                0x0206b708                ascii_num3_72
                0x0206b80c                ascii_num3_71
                0x0206b950                ascii_num3_70
                0x0206ba54                ascii_num3_69
                0x0206bb58                ascii_num3_68
                0x0206bc5c                ascii_num3_67
                0x0206bd60                ascii_num3_66
                0x0206be64                ascii_num3_65
                0x0206bf68                ascii_num3_64
                0x0206c0ec                ascii_num3_63
                0x0206c1f0                ascii_num3_62
                0x0206c2f4                ascii_num3_61
                0x0206c3f8                ascii_num3_60
                0x0206c4fc                ascii_num3_59
                0x0206c580                ascii_num3_58
                0x0206c604                ascii_num3_57
                0x0206c708                ascii_num3_56
                0x0206c80c                ascii_num3_55
                0x0206c910                ascii_num3_54
                0x0206ca14                ascii_num3_53
                0x0206cb18                ascii_num3_52
                0x0206cc1c                ascii_num3_51
                0x0206cd20                ascii_num3_50
                0x0206ce24                ascii_num3_49
                0x0206cf28                ascii_num3_48
                0x0206d02c                ascii_num3_47
                0x0206d0b0                ascii_num3_46
                0x0206d134                ascii_num3_45
                0x0206d1b8                ascii_num3_44
                0x0206d23c                ascii_num3_43
                0x0206d340                ascii_num3_42
                0x0206d404                ascii_num3_41
                0x0206d488                ascii_num3_40
                0x0206d50c                ascii_num3_39
                0x0206d590                ascii_num3_38
                0x0206d694                ascii_num3_37
                0x0206d7d8                ascii_num3_36
                0x0206d8dc                ascii_num3_35
                0x0206d9e0                ascii_num3_33
                0x0206da64                ascii_num3_32
 .rodata.str1.1
                0x0206dae8      0x20b ../bwlib\liblimage.a(imageL_encode.o)
 *fill*         0x0206dcf3        0x1 
 .rodata        0x0206dcf4       0x1c ../bwlib\liblimage.a(imageL_encode.o)
 .rodata.str1.1
                0x0206dd10       0x14 ../bwlib\libeffect.a(user_effect.o)
                                 0x1d (size before relaxing)
 .rodata.cst4   0x0206dd24        0x8 ../bwlib\libeffect.a(user_effect.o)
 .rodata        0x0206dd2c     0x3e44 ../bwlib\libeffect.a(user_effect.o)
                0x0206dd2c                BayerPattern
 .rodata.str1.1
                0x02071b70       0xf6 ../bwlib\libmp3.a(mp3_decode_api.o)
 .rodata.str1.1
                0x02071c66      0x215 ../bwlib\libmp3.a(stream.o)
 *fill*         0x02071e7b        0x1 
 .rodata        0x02071e7c      0x880 ../bwlib\libmp3.a(synth.o)
 .rodata        0x020726fc      0x200 ../bwlib\libmp3.a(bit.o)
 .rodata        0x020728fc      0x144 ../bwlib\libmp3.a(frame.o)
 .rodata        0x02072a40      0x334 ../bwlib\libmp3.a(layer12.o)
 .rodata        0x02072d74        0x8 ../bwlib\libmp3.a(timer.o)
                0x02072d74                mad_timer_zero
 .rodata        0x02072d7c     0x8664 ../bwlib\libmp3.a(layer3.o)
 .rodata        0x0207b3e0     0x1228 ../bwlib\libmp3.a(huffman.o)
                0x0207b3e0                mad_huff_pair_table
                0x0207b4e0                mad_huff_quad_table
 .rodata.str1.1
                0x0207c608       0x90 ../bwlib\libavi.a(encoder_odml.o)
 .rodata.str1.1
                0x0207c698       0x74 ../bwlib\libfs.a(fs.o)
                                 0x75 (size before relaxing)
 .rodata.str1.1
                0x0207c70c       0x44 ../bwlib\libfs.a(ff.o)
                                 0x4d (size before relaxing)
 .rodata.cst4   0x0207c750        0x4 ../bwlib\libfs.a(ff.o)
 .rodata        0x0207c754       0x40 ../bwlib\libfs.a(ff.o)
 .rodata        0x0207c794      0x2d4 ../bwlib\libfs.a(ffunicode.o)
 .rodata        0x0207ca68      0x284 C:/MinGW-4.7.1/or1k-elf/lib/no-delay\libc.a(lib_a-ctype_.o)
                0x0207ca68                _ctype_
 .rodata        0x0207ccec       0x80 C:/MinGW-4.7.1/lib/gcc/or1k-elf/4.9.1/no-delay\libgcc.a(divsf3.o)
 .rodata        0x0207cd6c       0x40 C:/MinGW-4.7.1/lib/gcc/or1k-elf/4.9.1/no-delay\libgcc.a(mulsf3.o)
 .rodata        0x0207cdac      0x100 C:/MinGW-4.7.1/lib/gcc/or1k-elf/4.9.1/no-delay\libgcc.a(_clz.o)
                0x0207cdac                __clz_tab
 *(.data*)
 .data          0x0207ceac        0x0 ./Debug/ax32xx_reset.S.o
 .data          0x0207ceac        0x0 ./Debug/ax32xx_spi_boot_cfg.S.o
 .data          0x0207ceac        0x0 ./Debug/ax32xx_BLDRX32.S.o
 .data          0x0207ceac        0x0 ./Debug/main.c.o
 .data          0x0207ceac        0x0 ./Debug/resource_manager.c.o
 .data          0x0207ceac        0x8 ./Debug/board.c.o
 .data          0x0207ceb4       0xf4 ./Debug/board_bwv1.c.o
                0x0207cec0                board_bwv1
                0x0207cf80                adckeyInfor
 .data          0x0207cfa8        0x0 ./Debug/config.c.o
 .data          0x0207cfa8        0x0 ./Debug/display.c.o
 .data          0x0207cfa8        0x0 ./Debug/explorer.c.o
 .data          0x0207cfa8       0x48 ./Debug/filelist.c.o
                0x0207cfa8                filelist
 .data          0x0207cff0        0x0 ./Debug/font.c.o
 .data          0x0207cff0        0x0 ./Debug/icon.c.o
 .data          0x0207cff0        0x0 ./Debug/configGetValue.c.o
 .data          0x0207cff0        0x0 ./Debug/configSystem.c.o
 .data          0x0207cff0        0x0 ./Debug/logo.c.o
 .data          0x0207cff0      0x370 ./Debug/menuMovieRec.c.o
                0x0207cff0                menumovie
                0x0207cffc                menuPagemovie
                0x0207d010                menuItemmovie
                0x0207d128                menuOptionversion
                0x0207d130                menuOptiontimephoto
                0x0207d150                menuOptionvolume
                0x0207d190                menuOptionlcdbright
                0x0207d1d0                menuOptionscreenSave
                0x0207d1e8                menuOptiondefaul
                0x0207d1f8                menuOptionformat
                0x0207d208                menuOptionlanguage
                0x0207d278                menuOptionautoPowerOff
                0x0207d290                menuOptionkeySound
                0x0207d2a0                menuOptiontimeStamp
                0x0207d2b0                menuOptionloopRecord
                0x0207d2c8                menuOptionpfastview
                0x0207d2e0                menuOptionphotoResolution
                0x0207d348                menuOptionvidResolution
 .data          0x0207d360        0x0 ./Debug/msgDeal.c.o
 .data          0x0207d360       0x30 ./Debug/msgSysRecommend.c.o
                0x0207d360                sysRecommendMsgDeal
 .data          0x0207d390       0x70 ./Debug/msgSysUnshielded.c.o
                0x0207d390                sysUnshieldedMsgDeal
 .data          0x0207d400        0x0 ./Debug/taskManage.c.o
 .data          0x0207d400       0x1c ./Debug/taskPhotoEncode.c.o
                0x0207d400                taskPhotoEncode
                0x0207d414                jpg_encode_q_talbe
 .data          0x0207d41c      0x328 ./Debug/taskPhotoEncodeMsg.c.o
                0x0207d420                photoEncodeWindow
                0x0207d430                photoEncodeMsgDeal
                0x0207d4b0                R_FRAME
 .data          0x0207d744       0x14 ./Debug/taskPlayBack.c.o
                0x0207d744                taskPlayBack
 .data          0x0207d758      0x2b0 ./Debug/taskPlayBackMsg.c.o
                0x0207d768                playBackWindow
                0x0207d778                playBackMsgDeal
 .data          0x0207da08       0x14 ./Debug/taskPowerOff.c.o
                0x0207da08                taskPowerOff
 .data          0x0207da1c       0x10 ./Debug/taskSysScanDevice.c.o
 .data          0x0207da2c       0x54 ./Debug/taskUsbDevice.c.o
                0x0207da2c                usbDeviceMsgDeal
                0x0207da6c                taskUsbDevice
 .data          0x0207da80       0x18 ./Debug/taskVideoRecord.c.o
                0x0207da80                taskVideoRecorde
                0x0207da94                photoFd
 .data          0x0207da98      0x334 ./Debug/taskVideoRecordMsg.c.o
                0x0207dab4                videoRecordWindow
                0x0207dac4                videoRecordeMsgDeal
 .data          0x0207ddcc        0x0 ./Debug/toolFunc.c.o
 .data          0x0207ddcc       0xe8 ./Debug/uiMenuDateTimeMsg.c.o
                0x0207ddcc                dateTimeWindow
                0x0207dddc                dateTimeMsgDeal
 .data          0x0207deb4      0x118 ./Debug/uiMenuDefaultMsg.c.o
                0x0207deb4                defaultWindow
                0x0207dec4                defaultMsgDeal
 .data          0x0207dfcc      0x108 ./Debug/uiMenuDelAllMsg.c.o
                0x0207dfcc                delAllWindow
                0x0207dfdc                delAllMsgDeal
 .data          0x0207e0d4      0x110 ./Debug/uiMenuDelCurMsg.c.o
                0x0207e0d4                delCurWindow
                0x0207e0e4                delCurMsgDeal
 .data          0x0207e1e4      0x118 ./Debug/uiMenuFormatMsg.c.o
                0x0207e1e4                formatWindow
                0x0207e1f4                formatMsgDeal
 .data          0x0207e2fc      0x110 ./Debug/uiMenuItemMsg.c.o
                0x0207e2fc                menuItemWindow
                0x0207e30c                menuItemMsgDeal
 .data          0x0207e40c      0x100 ./Debug/uiMenuOptionMsg.c.o
                0x0207e40c                menuOptionWindow
                0x0207e41c                menuOptionMsgDeal
 .data          0x0207e50c       0xf0 ./Debug/uiMenuUsbMsg.c.o
                0x0207e50c                menuUsbWindow
                0x0207e51c                menuUsbMsgDeal
 .data          0x0207e5fc       0xd8 ./Debug/uiNoFileMsg.c.o
                0x0207e5fc                noFileWindow
                0x0207e60c                noFileMsgDeal
 .data          0x0207e6d4      0x13c ./Debug/uiTips1Msg.c.o
                0x0207e6d4                tips1Window
                0x0207e6e4                tips1MsgDeal
 .data          0x0207e810      0x10c ./Debug/uiTipsMsg.c.o
                0x0207e810                tipsWindow
                0x0207e820                tipsMsgDeal
 .data          0x0207e91c        0x0 ./Debug/uiWin.c.o
 .data          0x0207e91c       0xd8 ./Debug/uiMenuVersionMsg.c.o
                0x0207e91c                versionWindow
                0x0207e92c                verisonMsgDeal
 .data          0x0207e9f4       0x14 ./Debug/taskAudioPlayer.c.o
                0x0207e9f4                taskAudioPlayer
 .data          0x0207ea08      0x328 ./Debug/taskAudioPlayerMsg.c.o
                0x0207ea08                audioPlayerWindow
                0x0207ea18                audioPlayerMsgDeal
 .data          0x0207ed30        0x0 ./Debug/taskAudioPlayerRes.c.o
 .data          0x0207ed30        0x0 ./Debug/taskPhotoEncodeRes.c.o
 .data          0x0207ed30        0x0 ./Debug/taskPlayBackRes.c.o
 .data          0x0207ed30        0x0 ./Debug/taskVideoRecordRes.c.o
 .data          0x0207ed30        0x0 ./Debug/uiMenuDateTimeRes.c.o
 .data          0x0207ed30        0x0 ./Debug/uiMenuDefaultRes.c.o
 .data          0x0207ed30        0x0 ./Debug/uiMenuDelAllRes.c.o
 .data          0x0207ed30        0x0 ./Debug/uiMenuDelCurRes.c.o
 .data          0x0207ed30        0x0 ./Debug/uiMenuFormatRes.c.o
 .data          0x0207ed30        0x0 ./Debug/uiMenuItemRes.c.o
 .data          0x0207ed30        0x0 ./Debug/uiMenuOptionRes.c.o
 .data          0x0207ed30        0x0 ./Debug/uiMenuUsbRes.c.o
 .data          0x0207ed30        0x0 ./Debug/uiMenuVersionRes.c.o
 .data          0x0207ed30        0x0 ./Debug/uiNoFileRes.c.o
 .data          0x0207ed30        0x0 ./Debug/uiTips1Res.c.o
 .data          0x0207ed30        0x0 ./Debug/uiTipsRes.c.o
 .data          0x0207ed30       0x14 ./Debug/taskMainMenu.c.o
                0x0207ed30                taskMainMenu
 .data          0x0207ed44       0xc0 ./Debug/taskMainMenuMsg.c.o
                0x0207ed44                mainMenuWindow
                0x0207ed54                mainMenuMsgDeal
 .data          0x0207ee04        0x0 ./Debug/taskMainMenuRes.c.o
 .data          0x0207ee04       0x14 ./Debug/taskSettingMenu.c.o
                0x0207ee04                taskSettingMenu
 .data          0x0207ee18        0x8 ./Debug/userInterface.c.o
                0x0207ee18                jump_process_black
                0x0207ee1a                jump_process_color
                0x0207ee1c                jump_process_cnt
 .data          0x0207ee20       0x14 ./Debug/upgrade.c.o
                0x0207ee20                taskUpgrade
 .data          0x0207ee34       0x68 ./Debug/game_block.c.o
                0x0207ee36                rand_level_prev
                0x0207ee38                game_block_icon_item
 .data          0x0207ee9c        0xc ./Debug/game_snake.c.o
                0x0207ee9c                status
                0x0207eea0                color_palette
 .data          0x0207eea8        0x1 ./Debug/game_sokoban.c.o
 .data          0x0207eea9        0x0 ./Debug/game_tetris.c.o
 *fill*         0x0207eea9        0x3 
 .data          0x0207eeac       0x1c ./Debug/taskGame.c.o
                0x0207eeb0                sleeptime
                0x0207eeb2                endGamestatus
                0x0207eeb4                taskGame
 .data          0x0207eec8       0x14 ./Debug/taskGameMenu.c.o
                0x0207eec8                taskGameMenu
 .data          0x0207eedc       0xb8 ./Debug/taskGameMenuMsg.c.o
                0x0207eedc                gameMenuWindow
                0x0207eeec                gameMenuMsgDeal
 .data          0x0207ef94        0x0 ./Debug/taskGameMenuRes.c.o
 .data          0x0207ef94        0x6 ./Debug/game_plane.c.o
                0x0207ef94                fps_lvel
                0x0207ef96                fps_bullet
                0x0207ef98                fps_panle
 .data          0x0207ef9a        0x0 ./Debug/game_maze.c.o
 .data          0x0207ef9a        0x0 ./Debug/xos_x_cpu.c.o
 .data          0x0207ef9a        0x0 ./Debug/xos_xmbox.c.o
 .data          0x0207ef9a        0x0 ./Debug/xos_xmsgq.c.o
 .data          0x0207ef9a        0x0 ./Debug/xos_xos.c.o
 .data          0x0207ef9a        0x0 ./Debug/xos_xwork.c.o
 .data          0x0207ef9a        0x0 ./Debug/multimedia_user_media.c.o
 .data          0x0207ef9a        0x0 ./Debug/sUI_button.c.o
 .data          0x0207ef9a        0x0 ./Debug/sUI_dialog.c.o
 .data          0x0207ef9a        0x0 ./Debug/sUI_frameWin.c.o
 .data          0x0207ef9a        0x0 ./Debug/sUI_imageIcon.c.o
 .data          0x0207ef9a        0x0 ./Debug/sUI_itemManage.c.o
 .data          0x0207ef9a        0x0 ./Debug/sUI_menuItem.c.o
 .data          0x0207ef9a        0x0 ./Debug/sUI_menuItemEx.c.o
 .data          0x0207ef9a        0x0 ./Debug/sUI_menuOption.c.o
 .data          0x0207ef9a        0x0 ./Debug/sUI_progressBar.c.o
 .data          0x0207ef9a        0x0 ./Debug/sUI_rect.c.o
 .data          0x0207ef9a        0x0 ./Debug/sUI_stringIcon.c.o
 .data          0x0207ef9a        0x0 ./Debug/sUI_tips.c.o
 .data          0x0207ef9a        0x0 ./Debug/sUI_uiAlloc.c.o
 .data          0x0207ef9a        0x0 ./Debug/sUI_widget.c.o
 .data          0x0207ef9a        0x0 ./Debug/sUI_winManage.c.o
 .data          0x0207ef9a        0x0 ./Debug/sUI_memPool.c.o
 .data          0x0207ef9a        0x0 ./Debug/sUI_widgetManage.c.o
 .data          0x0207ef9a        0x0 ./Debug/src_ax32xx_int.c.o
 .data          0x0207ef9a        0x0 ./Debug/src_ax32xx_sys.c.o
 .data          0x0207ef9a        0x0 ./Debug/src_ax32xx_dma.c.o
 .data          0x0207ef9a        0x0 ./Debug/src_ax32xx_wdt.c.o
 .data          0x0207ef9a        0x0 ./Debug/src_ax32xx_gpio.c.o
 .data          0x0207ef9a        0x0 ./Debug/src_ax32xx_uart.c.o
 .data          0x0207ef9a        0x0 ./Debug/src_ax32xx_timer.c.o
 .data          0x0207ef9a        0x0 ./Debug/src_ax32xx_tminf.c.o
 .data          0x0207ef9a        0x0 ./Debug/src_ax32xx_spi.c.o
 .data          0x0207ef9a        0x0 ./Debug/src_ax32xx_rtc.c.o
 .data          0x0207ef9a        0x0 ./Debug/src_ax32xx_iic.c.o
 .data          0x0207ef9a        0x0 ./Debug/src_ax32xx_dac.c.o
 .data          0x0207ef9a        0x0 ./Debug/src_ax32xx_adc.c.o
 .data          0x0207ef9a        0x0 ./Debug/src_ax32xx_auadc.c.o
 .data          0x0207ef9a        0x0 ./Debug/src_jpeg_table.c.o
 .data          0x0207ef9a        0x0 ./Debug/src_ax32xx_usb.c.o
 .data          0x0207ef9a        0x0 ./Debug/src_ax32xx_misc.c.o
 .data          0x0207ef9a        0x0 ./Debug/src_ax32xx_pip.c.o
 .data          0x0207ef9a        0x0 ./Debug/src_ax32xx_btuart.c.o
 .data          0x0207ef9a        0x0 ./Debug/src_ax32xx_crc.c.o
 .data          0x0207ef9a        0x0 ./Debug/src_ax32xx_emi.c.o
 .data          0x0207ef9a        0x0 ./Debug/src_ax32xx_rotate.c.o
 .data          0x0207ef9a        0x0 ./Debug/src_ax32xx_osdcmp.c.o
 .data          0x0207ef9a        0x0 ./Debug/src_ax32xx_isp.c.o
 .data          0x0207ef9a        0x0 ./Debug/osd_ax32xx_osd.c.o
 .data          0x0207ef9a        0x0 ./Debug/csi_ax32xx_csi.c.o
 .data          0x0207ef9a        0x4 ./Debug/lcd_ax32xx_lcd.c.o
 .data          0x0207ef9e        0x0 ./Debug/mjpeg_ax32xx_mjpeg.c.o
 *fill*         0x0207ef9e        0x2 
 .data          0x0207efa0      0x330 ./Debug/resource_user_icon.c.o
                0x0207efa0                User_Icon_Table
 .data          0x0207f2d0      0xcc0 ./Debug/resource_user_str.c.o
                0x0207f2d0                User_String_Table
 .data          0x0207ff90        0x0 ./Debug/src_hal_adc.c.o
 .data          0x0207ff90        0x0 ./Debug/src_hal_csi.c.o
 .data          0x0207ff90        0x0 ./Debug/src_hal_dac.c.o
 .data          0x0207ff90        0x0 ./Debug/src_hal_eeprom.c.o
 .data          0x0207ff90        0x0 ./Debug/src_hal_gpio.c.o
 .data          0x0207ff90        0x0 ./Debug/src_hal_iic.c.o
 .data          0x0207ff90       0x40 ./Debug/src_hal_lcd.c.o
 .data          0x0207ffd0        0x0 ./Debug/src_hal_osd.c.o
 .data          0x0207ffd0        0x0 ./Debug/src_hal_rtc.c.o
 .data          0x0207ffd0        0x0 ./Debug/src_hal_sd.c.o
 .data          0x0207ffd0        0x0 ./Debug/src_hal_spi.c.o
 .data          0x0207ffd0        0x0 ./Debug/src_hal_timer.c.o
 .data          0x0207ffd0        0x0 ./Debug/src_hal_uart.c.o
 .data          0x0207ffd0       0x3c ./Debug/src_hal_watermark.c.o
 .data          0x0208000c        0x0 ./Debug/src_hal_sys.c.o
 .data          0x0208000c        0x0 ./Debug/src_hal_auadc.c.o
 .data          0x0208000c        0x0 ./Debug/src_hal_mjpeg.c.o
 .data          0x0208000c        0x0 ./Debug/src_hal_int.c.o
 .data          0x0208000c        0x0 ./Debug/src_hal_wdt.c.o
 .data          0x0208000c        0x0 ./Debug/src_hal_stream.c.o
 .data          0x0208000c        0x0 ./Debug/src_hal_emi.c.o
 .data          0x0208000c        0x0 ./Debug/src_hal_osdcmp.c.o
 .data          0x0208000c        0x0 ./Debug/src_hal_rotate.c.o
 .data          0x0208000c        0x0 ./Debug/src_hal_lcdframe.c.o
 .data          0x0208000c        0x0 ./Debug/src_hal_custom_yuv.c.o
 .data          0x0208000c        0x0 ./Debug/dusb_hal_usb_api.c.o
 .data          0x0208000c        0x0 ./Debug/dusb_hal_usb_dev_enum.c.o
 .data          0x0208000c        0x0 ./Debug/dusb_hal_usb_msc.c.o
 .data          0x0208000c        0x0 ./Debug/dusb_hal_usb_uac.c.o
 .data          0x0208000c       0x28 ./Debug/dusb_hal_usb_uvc.c.o
                0x0208000c                UVC_Still_Probe_Commit
                0x02080018                uvc_video_probe_commit_value
 .data          0x02080034        0x0 ./Debug/audio_audio_playback.c.o
 .data          0x02080034        0x0 ./Debug/audio_audio_record.c.o
 .data          0x02080034        0x0 ./Debug/audio_ring_buffer.c.o
 .data          0x02080034        0x0 ./Debug/video_video_playback.c.o
 .data          0x02080034        0x0 ./Debug/video_video_record.c.o
 .data          0x02080034        0x0 ./Debug/image_image_decode.c.o
 .data          0x02080034        0x0 ./Debug/image_image_encode.c.o
 .data          0x02080034        0x0 ./Debug/wav_alaw.c.o
 .data          0x02080034        0x0 ./Debug/wav_imaadpcm.c.o
 .data          0x02080034        0x0 ./Debug/wav_pcm.c.o
 .data          0x02080034        0x0 ./Debug/wav_ulaw.c.o
 .data          0x02080034        0x0 ./Debug/wav_wav.c.o
 .data          0x02080034        0x0 ./Debug/stream_stream.c.o
 .data          0x02080034        0x0 ./Debug/cmos_sensor_cmos_sensor.c.o
 .data          0x02080034        0x0 ./Debug/cmos_sensor_SENSOR_BF3a03.c.o
 .data          0x02080034        0x0 ./Debug/cmos_sensor_SENSOR_BF2013.c.o
 .data          0x02080034        0x0 ./Debug/cmos_sensor_SENSOR_BF3703.c.o
 .data          0x02080034        0x0 ./Debug/cmos_sensor_SENSOR_GC0307.c.o
 .data          0x02080034        0x0 ./Debug/cmos_sensor_SENSOR_GC0308.c.o
 .data          0x02080034        0x0 ./Debug/cmos_sensor_SENSOR_GC0309.c.o
 .data          0x02080034        0x0 ./Debug/cmos_sensor_SENSOR_GC0328.c.o
 .data          0x02080034        0x0 ./Debug/cmos_sensor_SENSOR_OV7670.c.o
 .data          0x02080034        0x0 ./Debug/cmos_sensor_SENSOR_SP0838.c.o
 .data          0x02080034        0x0 ./Debug/cmos_sensor_SENSOR_SP0A18.c.o
 .data          0x02080034        0x0 ./Debug/cmos_sensor_SENSOR_GC0329.c.o
 .data          0x02080034        0x0 ./Debug/cmos_sensor_SENSOR_SIV100B.c.o
 .data          0x02080034        0x0 ./Debug/tft_lcd_lcd_mcu_st7789P3.c.o
 .data          0x02080034        0x0 ./Debug/cmos_sensor_SENSOR_BF20A6.c.o
 .data          0x02080034        0x0 ./Debug/tft_lcd_lcd_mcu_st7789.c.o
 .data          0x02080034        0x0 ./Debug/tft_lcd_tft_lcd.c.o
 .data          0x02080034        0x0 ./Debug/tft_lcd_lcd_mcu_ili9328.c.o
 .data          0x02080034        0x0 ./Debug/tft_lcd_lcd_mcu_st7789v.c.o
 .data          0x02080034        0x0 ./Debug/tft_lcd_lcd_mcu_hx8352c.c.o
 .data          0x02080034        0x0 ./Debug/tft_lcd_lcd_mcu_9225G.c.o
 .data          0x02080034        0x0 ./Debug/tft_lcd_lcd_mcu_nv3030b.c.o
 .data          0x02080034        0x0 ./Debug/nvfs_nvfs.c.o
 .data          0x02080034        0x0 ./Debug/Maxlib_max_user.c.o
 .data          0x02080034        0x0 ./Debug/Maxlib_uiDraw.c.o
 .data          0x02080034        0x0 ./Debug/std_misc.c.o
 .data          0x02080034        0x0 ./Debug/std_std_math.c.o
 .data          0x02080034        0x0 ./Debug/std_str.c.o
 .data          0x02080034        0x0 ./Debug/res_ascii.c.o
 .data          0x02080034        0x0 ./Debug/res_ascii_default.c.o
 .data          0x02080034      0x178 ./Debug/res_ascii_default_draw.c.o
                0x02080034                ascii_default_table
 .data          0x020801ac        0x0 ./Debug/res_R.c.o
 .data          0x020801ac        0x0 ./Debug/res_R_icon.c.o
 .data          0x020801ac        0x0 ./Debug/res_R_string.c.o
 .data          0x020801ac        0x0 ./Debug/res_unicode_font.c.o
 .data          0x020801ac        0x0 ./Debug/res_ascii_num3.c.o
 .data          0x020801ac      0x178 ./Debug/res_ascii_num3_draw.c.o
                0x020801ac                ascii_num3_table
 .data          0x02080324        0x0 ../bwlib\liblimage.a(imageL_encode.o)
 .data          0x02080324        0x0 ../bwlib\libeffect.a(user_effect.o)
 .data          0x02080324        0x0 ../bwlib\libmp3.a(mp3_decode_api.o)
 .data          0x02080324        0x0 ../bwlib\libmp3.a(decoder.o)
 .data          0x02080324        0x0 ../bwlib\libmp3.a(stream.o)
 .data          0x02080324        0x0 ../bwlib\libmp3.a(synth.o)
 .data          0x02080324        0x0 ../bwlib\libmp3.a(bit.o)
 .data          0x02080324        0x0 ../bwlib\libmp3.a(frame.o)
 .data          0x02080324        0x0 ../bwlib\libmp3.a(layer12.o)
 .data          0x02080324        0x0 ../bwlib\libmp3.a(timer.o)
 .data          0x02080324        0x0 ../bwlib\libmp3.a(layer3.o)
 .data          0x02080324        0x0 ../bwlib\libmp3.a(huffman.o)
 .data          0x02080324        0x0 ../bwlib\libsd.a(ax32xx_sd.o)
 .data          0x02080324        0x0 ../bwlib\libavi.a(aviEncoder.o)
 .data          0x02080324       0x18 ../bwlib\libavi.a(encoder_std.o)
                0x02080324                avi_encoder_std
 .data          0x0208033c       0x18 ../bwlib\libavi.a(encoder_odml.o)
                0x0208033c                avi_encoder_odml
 .data          0x02080354        0x0 ../bwlib\libavi.a(aviDecoder.o)
 .data          0x02080354       0x14 ../bwlib\libavi.a(decoder_std.o)
                0x02080354                avi_standard
 .data          0x02080368       0x14 ../bwlib\libavi.a(decoder_odml.o)
                0x02080368                avi_opendml
 .data          0x0208037c        0x0 ../bwlib\libfs.a(fs.o)
 .data          0x0208037c        0x0 ../bwlib\libfs.a(diskio.o)
 .data          0x0208037c        0x0 ../bwlib\libfs.a(ff.o)
 .data          0x0208037c        0x0 ../bwlib\libfs.a(ffunicode.o)
 .data          0x0208037c        0x0 C:/MinGW-4.7.1/or1k-elf/lib/no-delay\libc.a(lib_a-memcmp.o)
 .data          0x0208037c        0x0 C:/MinGW-4.7.1/or1k-elf/lib/no-delay\libc.a(lib_a-memcpy.o)
 .data          0x0208037c        0x0 C:/MinGW-4.7.1/or1k-elf/lib/no-delay\libc.a(lib_a-memmove.o)
 .data          0x0208037c        0x0 C:/MinGW-4.7.1/or1k-elf/lib/no-delay\libc.a(lib_a-memset.o)
 .data          0x0208037c        0x0 C:/MinGW-4.7.1/or1k-elf/lib/no-delay\libc.a(lib_a-strcasecmp.o)
 .data          0x0208037c        0x0 C:/MinGW-4.7.1/or1k-elf/lib/no-delay\libc.a(lib_a-strcat.o)
 .data          0x0208037c        0x0 C:/MinGW-4.7.1/or1k-elf/lib/no-delay\libc.a(lib_a-strchr.o)
 .data          0x0208037c        0x0 C:/MinGW-4.7.1/or1k-elf/lib/no-delay\libc.a(lib_a-strcmp.o)
 .data          0x0208037c        0x0 C:/MinGW-4.7.1/or1k-elf/lib/no-delay\libc.a(lib_a-strcpy.o)
 .data          0x0208037c        0x0 C:/MinGW-4.7.1/or1k-elf/lib/no-delay\libc.a(lib_a-strlen.o)
 .data          0x0208037c        0x0 C:/MinGW-4.7.1/or1k-elf/lib/no-delay\libc.a(lib_a-strncmp.o)
 .data          0x0208037c        0x0 C:/MinGW-4.7.1/or1k-elf/lib/no-delay\libc.a(lib_a-strstr.o)
 .data          0x0208037c        0x4 C:/MinGW-4.7.1/or1k-elf/lib/no-delay\libc.a(lib_a-ctype_.o)
                0x0208037c                __ctype_ptr__
 .data          0x02080380        0x0 C:/MinGW-4.7.1/or1k-elf/lib/no-delay\libc.a(lib_a-memchr.o)
 .data          0x02080380        0x0 C:/MinGW-4.7.1/lib/gcc/or1k-elf/4.9.1/no-delay\libgcc.a(_muldi3.o)
 .data          0x02080380        0x0 C:/MinGW-4.7.1/lib/gcc/or1k-elf/4.9.1/no-delay\libgcc.a(_udivdi3.o)
 .data          0x02080380        0x0 C:/MinGW-4.7.1/lib/gcc/or1k-elf/4.9.1/no-delay\libgcc.a(addsf3.o)
 .data          0x02080380        0x0 C:/MinGW-4.7.1/lib/gcc/or1k-elf/4.9.1/no-delay\libgcc.a(divsf3.o)
 .data          0x02080380        0x0 C:/MinGW-4.7.1/lib/gcc/or1k-elf/4.9.1/no-delay\libgcc.a(eqsf2.o)
 .data          0x02080380        0x0 C:/MinGW-4.7.1/lib/gcc/or1k-elf/4.9.1/no-delay\libgcc.a(gesf2.o)
 .data          0x02080380        0x0 C:/MinGW-4.7.1/lib/gcc/or1k-elf/4.9.1/no-delay\libgcc.a(mulsf3.o)
 .data          0x02080380        0x0 C:/MinGW-4.7.1/lib/gcc/or1k-elf/4.9.1/no-delay\libgcc.a(fixunssfsi.o)
 .data          0x02080380        0x0 C:/MinGW-4.7.1/lib/gcc/or1k-elf/4.9.1/no-delay\libgcc.a(floatsisf.o)
 .data          0x02080380        0x0 C:/MinGW-4.7.1/lib/gcc/or1k-elf/4.9.1/no-delay\libgcc.a(floatunsisf.o)
 .data          0x02080380        0x0 C:/MinGW-4.7.1/lib/gcc/or1k-elf/4.9.1/no-delay\libgcc.a(__udivsi3.o)
 .data          0x02080380        0x0 C:/MinGW-4.7.1/lib/gcc/or1k-elf/4.9.1/no-delay\libgcc.a(__umodsi3.o)
 .data          0x02080380        0x0 C:/MinGW-4.7.1/lib/gcc/or1k-elf/4.9.1/no-delay\libgcc.a(_clz.o)
 .data          0x02080380        0x0 C:/MinGW-4.7.1/lib/gcc/or1k-elf/4.9.1/no-delay\libgcc.a(_clzsi2.o)
                0x02080380                _text_end = .

.bss            0x02080380    0x17ef4 load address 0x00082580
                0x02080380                __bss_start = .
 *(.bss*)
 .bss           0x02080380        0x0 ./Debug/ax32xx_reset.S.o
 .bss           0x02080380        0x0 ./Debug/ax32xx_spi_boot_cfg.S.o
 .bss           0x02080380        0x0 ./Debug/ax32xx_BLDRX32.S.o
 .bss           0x02080380       0x58 ./Debug/main.c.o
                0x02080380                recordIncrease1S
                0x02080384                sysPowerOn
 .bss           0x020803d8       0x88 ./Debug/resource_manager.c.o
 .bss           0x02080460        0x0 ./Debug/board.c.o
 .bss           0x02080460       0x28 ./Debug/board_bwv1.c.o
                0x02080460                keyADCvalue
 *fill*         0x02080488       0x18 
 .bss           0x020804a0      0x220 ./Debug/config.c.o
 .bss           0x020806c0       0x30 ./Debug/display.c.o
 .bss           0x020806f0        0x0 ./Debug/explorer.c.o
 .bss           0x020806f0     0x3ec8 ./Debug/filelist.c.o
 .bss           0x020845b8      0x12c ./Debug/font.c.o
 .bss           0x020846e4       0x14 ./Debug/icon.c.o
 .bss           0x020846f8        0x0 ./Debug/configGetValue.c.o
 .bss           0x020846f8        0x4 ./Debug/configSystem.c.o
 .bss           0x020846fc        0x8 ./Debug/logo.c.o
 .bss           0x02084704        0x0 ./Debug/menuMovieRec.c.o
 .bss           0x02084704      0x148 ./Debug/msgDeal.c.o
 .bss           0x0208484c        0x0 ./Debug/msgSysRecommend.c.o
 .bss           0x0208484c        0x8 ./Debug/msgSysUnshielded.c.o
 .bss           0x02084854       0x48 ./Debug/taskManage.c.o
 .bss           0x0208489c        0x8 ./Debug/taskPhotoEncode.c.o
                0x0208489c                picSum
                0x020848a0                sdFreesize
 .bss           0x020848a4       0x18 ./Debug/taskPhotoEncodeMsg.c.o
                0x020848a4                photo_focus_show_count
                0x020848a8                ok_key_active
                0x020848a9                delay_timer
 .bss           0x020848bc        0x8 ./Debug/taskPlayBack.c.o
                0x020848bc                first_frame_not_display
 .bss           0x020848c4       0x28 ./Debug/taskPlayBackMsg.c.o
 .bss           0x020848ec        0x0 ./Debug/taskPowerOff.c.o
 .bss           0x020848ec       0x34 ./Debug/taskSysScanDevice.c.o
 .bss           0x02084920       0x14 ./Debug/taskUsbDevice.c.o
                0x02084920                usb_pwroff_logo_flag
                0x02084924                usb_bat_draw_first_pic
                0x02084928                usb_bat_flag
 .bss           0x02084934        0x8 ./Debug/taskVideoRecord.c.o
                0x02084934                photoname
 .bss           0x0208493c       0x2c ./Debug/taskVideoRecordMsg.c.o
                0x0208493c                cut_sdr_data_addr
                0x02084940                cut_sdr_data_en
                0x02084941                sensor_flag
                0x02084942                rotate_flag
                0x02084944                video_focus_show_count
 .bss           0x02084968        0x0 ./Debug/toolFunc.c.o
 .bss           0x02084968       0x54 ./Debug/uiMenuDateTimeMsg.c.o
 .bss           0x020849bc        0x0 ./Debug/uiMenuDefaultMsg.c.o
 .bss           0x020849bc        0x0 ./Debug/uiMenuDelAllMsg.c.o
 .bss           0x020849bc        0x0 ./Debug/uiMenuDelCurMsg.c.o
 .bss           0x020849bc        0x0 ./Debug/uiMenuFormatMsg.c.o
 .bss           0x020849bc        0xc ./Debug/uiMenuItemMsg.c.o
 .bss           0x020849c8        0x8 ./Debug/uiMenuOptionMsg.c.o
 .bss           0x020849d0        0x0 ./Debug/uiMenuUsbMsg.c.o
 .bss           0x020849d0        0x0 ./Debug/uiNoFileMsg.c.o
 .bss           0x020849d0        0x4 ./Debug/uiTips1Msg.c.o
 .bss           0x020849d4        0x4 ./Debug/uiTipsMsg.c.o
 .bss           0x020849d8        0x0 ./Debug/uiWin.c.o
 .bss           0x020849d8        0x0 ./Debug/uiMenuVersionMsg.c.o
 .bss           0x020849d8        0x0 ./Debug/taskAudioPlayer.c.o
 .bss           0x020849d8       0x48 ./Debug/taskAudioPlayerMsg.c.o
                0x020849d8                oem2uni936_data_buf
                0x020849dc                uni2oem936_data_buf
 .bss           0x02084a20        0x0 ./Debug/taskAudioPlayerRes.c.o
 .bss           0x02084a20        0x0 ./Debug/taskPhotoEncodeRes.c.o
 .bss           0x02084a20        0x0 ./Debug/taskPlayBackRes.c.o
 .bss           0x02084a20        0x0 ./Debug/taskVideoRecordRes.c.o
 .bss           0x02084a20        0x0 ./Debug/uiMenuDateTimeRes.c.o
 .bss           0x02084a20        0x0 ./Debug/uiMenuDefaultRes.c.o
 .bss           0x02084a20        0x0 ./Debug/uiMenuDelAllRes.c.o
 .bss           0x02084a20        0x0 ./Debug/uiMenuDelCurRes.c.o
 .bss           0x02084a20        0x0 ./Debug/uiMenuFormatRes.c.o
 .bss           0x02084a20        0x0 ./Debug/uiMenuItemRes.c.o
 .bss           0x02084a20        0x0 ./Debug/uiMenuOptionRes.c.o
 .bss           0x02084a20        0x0 ./Debug/uiMenuUsbRes.c.o
 .bss           0x02084a20        0x0 ./Debug/uiMenuVersionRes.c.o
 .bss           0x02084a20        0x0 ./Debug/uiNoFileRes.c.o
 .bss           0x02084a20        0x0 ./Debug/uiTips1Res.c.o
 .bss           0x02084a20        0x0 ./Debug/uiTipsRes.c.o
 .bss           0x02084a20        0x0 ./Debug/taskMainMenu.c.o
 .bss           0x02084a20       0x10 ./Debug/taskMainMenuMsg.c.o
 .bss           0x02084a30        0x0 ./Debug/taskMainMenuRes.c.o
 .bss           0x02084a30        0x0 ./Debug/taskSettingMenu.c.o
 .bss           0x02084a30       0x10 ./Debug/userInterface.c.o
                0x02084a30                changeUserInterface
 .bss           0x02084a40        0x1 ./Debug/upgrade.c.o
 *fill*         0x02084a41        0x3 
 .bss           0x02084a44       0x24 ./Debug/game_block.c.o
                0x02084a44                block_break_game_pause
                0x02084a48                block_break_pause
                0x02084a4c                power_up
                0x02084a50                block_map
                0x02084a54                ball
 .bss           0x02084a68      0x238 ./Debug/game_snake.c.o
                0x02084a68                map_sz
 .bss           0x02084ca0       0x28 ./Debug/game_sokoban.c.o
 .bss           0x02084cc8      0x338 ./Debug/game_tetris.c.o
 .bss           0x02085000       0x3c ./Debug/taskGame.c.o
                0x02085000                setting_frame_buff
 .bss           0x0208503c        0x0 ./Debug/taskGameMenu.c.o
 .bss           0x0208503c       0x34 ./Debug/taskGameMenuMsg.c.o
 .bss           0x02085070        0x0 ./Debug/taskGameMenuRes.c.o
 .bss           0x02085070       0x14 ./Debug/game_plane.c.o
                0x02085070                dfj_score
                0x02085074                fps_delay
 .bss           0x02085084        0x5 ./Debug/game_maze.c.o
                0x02085084                maze_leve
                0x02085085                maze_oldBoxType
                0x02085086                maze_oldType
                0x02085087                maze_column
                0x02085088                maze_row
 .bss           0x02085089        0x0 ./Debug/xos_x_cpu.c.o
 *fill*         0x02085089        0x3 
 .bss           0x0208508c       0x40 ./Debug/xos_xmbox.c.o
 .bss           0x020850cc        0x0 ./Debug/xos_xmsgq.c.o
 .bss           0x020850cc        0x8 ./Debug/xos_xos.c.o
 .bss           0x020850d4       0x80 ./Debug/xos_xwork.c.o
 .bss           0x02085154       0x2c ./Debug/multimedia_user_media.c.o
 .bss           0x02085180        0x0 ./Debug/sUI_button.c.o
 .bss           0x02085180        0x0 ./Debug/sUI_dialog.c.o
 .bss           0x02085180        0x0 ./Debug/sUI_frameWin.c.o
 .bss           0x02085180        0x0 ./Debug/sUI_imageIcon.c.o
 .bss           0x02085180        0x0 ./Debug/sUI_itemManage.c.o
 .bss           0x02085180        0x0 ./Debug/sUI_menuItem.c.o
 .bss           0x02085180        0x0 ./Debug/sUI_menuItemEx.c.o
 .bss           0x02085180        0x0 ./Debug/sUI_menuOption.c.o
 .bss           0x02085180        0x4 ./Debug/sUI_progressBar.c.o
 .bss           0x02085184        0x0 ./Debug/sUI_rect.c.o
 .bss           0x02085184        0x0 ./Debug/sUI_stringIcon.c.o
 .bss           0x02085184        0x0 ./Debug/sUI_tips.c.o
 .bss           0x02085184        0x8 ./Debug/sUI_uiAlloc.c.o
 .bss           0x0208518c        0x0 ./Debug/sUI_widget.c.o
 .bss           0x0208518c       0x54 ./Debug/sUI_winManage.c.o
 .bss           0x020851e0        0x0 ./Debug/sUI_memPool.c.o
 .bss           0x020851e0        0x0 ./Debug/sUI_widgetManage.c.o
 .bss           0x020851e0        0x0 ./Debug/src_ax32xx_int.c.o
 .bss           0x020851e0        0x0 ./Debug/src_ax32xx_sys.c.o
 .bss           0x020851e0        0x1 ./Debug/src_ax32xx_dma.c.o
 .bss           0x020851e1        0x0 ./Debug/src_ax32xx_wdt.c.o
 *fill*         0x020851e1        0x3 
 .bss           0x020851e4       0x6c ./Debug/src_ax32xx_gpio.c.o
 .bss           0x02085250        0x4 ./Debug/src_ax32xx_uart.c.o
 .bss           0x02085254        0x0 ./Debug/src_ax32xx_timer.c.o
 .bss           0x02085254       0x28 ./Debug/src_ax32xx_tminf.c.o
 .bss           0x0208527c        0x0 ./Debug/src_ax32xx_spi.c.o
 .bss           0x0208527c        0x0 ./Debug/src_ax32xx_rtc.c.o
 .bss           0x0208527c        0x0 ./Debug/src_ax32xx_iic.c.o
 .bss           0x0208527c        0x4 ./Debug/src_ax32xx_dac.c.o
 .bss           0x02085280        0x0 ./Debug/src_ax32xx_adc.c.o
 .bss           0x02085280        0x8 ./Debug/src_ax32xx_auadc.c.o
 .bss           0x02085288        0x1 ./Debug/src_jpeg_table.c.o
 *fill*         0x02085289        0x3 
 .bss           0x0208528c        0xc ./Debug/src_ax32xx_usb.c.o
 .bss           0x02085298        0x0 ./Debug/src_ax32xx_misc.c.o
 .bss           0x02085298        0x0 ./Debug/src_ax32xx_pip.c.o
 .bss           0x02085298        0x0 ./Debug/src_ax32xx_btuart.c.o
 .bss           0x02085298        0x0 ./Debug/src_ax32xx_crc.c.o
 .bss           0x02085298        0x4 ./Debug/src_ax32xx_emi.c.o
 .bss           0x0208529c        0x4 ./Debug/src_ax32xx_rotate.c.o
 .bss           0x020852a0        0x4 ./Debug/src_ax32xx_osdcmp.c.o
 .bss           0x020852a4        0x0 ./Debug/src_ax32xx_isp.c.o
 .bss           0x020852a4        0x4 ./Debug/osd_ax32xx_osd.c.o
 .bss           0x020852a8       0x34 ./Debug/csi_ax32xx_csi.c.o
 .bss           0x020852dc        0x1 ./Debug/lcd_ax32xx_lcd.c.o
                0x020852dc                lcdc_mcu_toggle_state
 *fill*         0x020852dd        0x3 
 .bss           0x020852e0       0x30 ./Debug/mjpeg_ax32xx_mjpeg.c.o
 .bss           0x02085310        0x0 ./Debug/resource_user_icon.c.o
 .bss           0x02085310        0x0 ./Debug/resource_user_str.c.o
 .bss           0x02085310        0x0 ./Debug/src_hal_adc.c.o
 .bss           0x02085310        0x0 ./Debug/src_hal_csi.c.o
 .bss           0x02085310        0x8 ./Debug/src_hal_dac.c.o
 .bss           0x02085318        0x0 ./Debug/src_hal_eeprom.c.o
 .bss           0x02085318        0x0 ./Debug/src_hal_gpio.c.o
 .bss           0x02085318        0x1 ./Debug/src_hal_iic.c.o
 *fill*         0x02085319        0x3 
 .bss           0x0208531c       0x34 ./Debug/src_hal_lcd.c.o
 .bss           0x02085350       0x48 ./Debug/src_hal_osd.c.o
 .bss           0x02085398       0x34 ./Debug/src_hal_rtc.c.o
 *fill*         0x020853cc        0x4 
 .bss           0x020853d0      0x210 ./Debug/src_hal_sd.c.o
 .bss           0x020855e0      0xfb0 ./Debug/src_hal_spi.c.o
 .bss           0x02086590        0x0 ./Debug/src_hal_timer.c.o
 .bss           0x02086590        0x8 ./Debug/src_hal_uart.c.o
 .bss           0x02086598       0x10 ./Debug/src_hal_watermark.c.o
 .bss           0x020865a8      0x214 ./Debug/src_hal_sys.c.o
 .bss           0x020867bc       0xf8 ./Debug/src_hal_auadc.c.o
                0x020867bc                auadccnt
                0x020867c0                auadcbuff
 .bss           0x020868b4       0x80 ./Debug/src_hal_mjpeg.c.o
                0x020868b4                ispmode_tmp
 .bss           0x02086934        0x0 ./Debug/src_hal_int.c.o
 .bss           0x02086934        0x0 ./Debug/src_hal_wdt.c.o
 .bss           0x02086934        0x0 ./Debug/src_hal_stream.c.o
 .bss           0x02086934        0x0 ./Debug/src_hal_emi.c.o
 .bss           0x02086934        0x8 ./Debug/src_hal_osdcmp.c.o
 .bss           0x0208693c       0x28 ./Debug/src_hal_rotate.c.o
 .bss           0x02086964        0x0 ./Debug/src_hal_lcdframe.c.o
 .bss           0x02086964        0x0 ./Debug/src_hal_custom_yuv.c.o
 .bss           0x02086964        0x8 ./Debug/dusb_hal_usb_api.c.o
 .bss           0x0208696c       0x10 ./Debug/dusb_hal_usb_dev_enum.c.o
 .bss           0x0208697c        0x0 ./Debug/dusb_hal_usb_msc.c.o
 .bss           0x0208697c        0x0 ./Debug/dusb_hal_usb_uac.c.o
 .bss           0x0208697c        0x1 ./Debug/dusb_hal_usb_uvc.c.o
 *fill*         0x0208697d        0x3 
 .bss           0x02086980       0x30 ./Debug/audio_audio_playback.c.o
 .bss           0x020869b0        0x0 ./Debug/audio_audio_record.c.o
 .bss           0x020869b0       0x28 ./Debug/audio_ring_buffer.c.o
 .bss           0x020869d8       0xf4 ./Debug/video_video_playback.c.o
 .bss           0x02086acc        0xc ./Debug/video_video_record.c.o
                0x02086acc                audiobuff
 .bss           0x02086ad8        0x0 ./Debug/image_image_decode.c.o
 .bss           0x02086ad8        0x0 ./Debug/image_image_encode.c.o
 .bss           0x02086ad8        0x0 ./Debug/wav_alaw.c.o
 .bss           0x02086ad8        0x0 ./Debug/wav_imaadpcm.c.o
 .bss           0x02086ad8        0x0 ./Debug/wav_pcm.c.o
 .bss           0x02086ad8        0x0 ./Debug/wav_ulaw.c.o
 .bss           0x02086ad8       0xcc ./Debug/wav_wav.c.o
 .bss           0x02086ba4        0x0 ./Debug/stream_stream.c.o
 .bss           0x02086ba4       0x14 ./Debug/cmos_sensor_cmos_sensor.c.o
                0x02086ba4                senser_select
                0x02086ba8                devSensorInit
                0x02086bac                devSensorOp
 .bss           0x02086bb8        0x0 ./Debug/cmos_sensor_SENSOR_BF3a03.c.o
 .bss           0x02086bb8        0x0 ./Debug/cmos_sensor_SENSOR_BF2013.c.o
 .bss           0x02086bb8        0x0 ./Debug/cmos_sensor_SENSOR_BF3703.c.o
 .bss           0x02086bb8        0x0 ./Debug/cmos_sensor_SENSOR_GC0307.c.o
 .bss           0x02086bb8        0x0 ./Debug/cmos_sensor_SENSOR_GC0308.c.o
 .bss           0x02086bb8        0x0 ./Debug/cmos_sensor_SENSOR_GC0309.c.o
 .bss           0x02086bb8        0x0 ./Debug/cmos_sensor_SENSOR_GC0328.c.o
 .bss           0x02086bb8        0x0 ./Debug/cmos_sensor_SENSOR_OV7670.c.o
 .bss           0x02086bb8        0x0 ./Debug/cmos_sensor_SENSOR_SP0838.c.o
 .bss           0x02086bb8        0x0 ./Debug/cmos_sensor_SENSOR_SP0A18.c.o
 .bss           0x02086bb8        0x0 ./Debug/cmos_sensor_SENSOR_GC0329.c.o
 .bss           0x02086bb8        0x0 ./Debug/cmos_sensor_SENSOR_SIV100B.c.o
 .bss           0x02086bb8        0x0 ./Debug/tft_lcd_lcd_mcu_st7789P3.c.o
 .bss           0x02086bb8        0x0 ./Debug/cmos_sensor_SENSOR_BF20A6.c.o
 .bss           0x02086bb8        0x0 ./Debug/tft_lcd_lcd_mcu_st7789.c.o
 .bss           0x02086bb8        0x8 ./Debug/tft_lcd_tft_lcd.c.o
 .bss           0x02086bc0        0x0 ./Debug/tft_lcd_lcd_mcu_ili9328.c.o
 .bss           0x02086bc0        0x0 ./Debug/tft_lcd_lcd_mcu_st7789v.c.o
 .bss           0x02086bc0        0x0 ./Debug/tft_lcd_lcd_mcu_hx8352c.c.o
 .bss           0x02086bc0        0x0 ./Debug/tft_lcd_lcd_mcu_9225G.c.o
 .bss           0x02086bc0        0x0 ./Debug/tft_lcd_lcd_mcu_nv3030b.c.o
 .bss           0x02086bc0       0x18 ./Debug/nvfs_nvfs.c.o
 .bss           0x02086bd8       0x10 ./Debug/Maxlib_max_user.c.o
                0x02086bd8                LCD_HEIGHT
                0x02086bda                LCD_WIDTH
 .bss           0x02086be8      0x14c ./Debug/Maxlib_uiDraw.c.o
 .bss           0x02086d34       0x10 ./Debug/std_misc.c.o
 .bss           0x02086d44        0x0 ./Debug/std_std_math.c.o
 .bss           0x02086d44        0x0 ./Debug/std_str.c.o
 .bss           0x02086d44        0x0 ./Debug/res_ascii.c.o
 .bss           0x02086d44        0x0 ./Debug/res_ascii_default.c.o
 .bss           0x02086d44        0x0 ./Debug/res_ascii_default_draw.c.o
 .bss           0x02086d44        0x0 ./Debug/res_R.c.o
 .bss           0x02086d44       0x10 ./Debug/res_R_icon.c.o
 .bss           0x02086d54        0xc ./Debug/res_R_string.c.o
 .bss           0x02086d60        0x4 ./Debug/res_unicode_font.c.o
                0x02086d60                mp3_font_buf
 .bss           0x02086d64        0x0 ./Debug/res_ascii_num3.c.o
 .bss           0x02086d64        0x0 ./Debug/res_ascii_num3_draw.c.o
 .bss           0x02086d64       0x18 ../bwlib\liblimage.a(imageL_encode.o)
 .bss           0x02086d7c        0x4 ../bwlib\libeffect.a(user_effect.o)
                0x02086d7c                window_stream_flag
 .bss           0x02086d80       0x10 ../bwlib\libmp3.a(mp3_decode_api.o)
 .bss           0x02086d90        0x0 ../bwlib\libmp3.a(decoder.o)
 .bss           0x02086d90        0x0 ../bwlib\libmp3.a(stream.o)
 .bss           0x02086d90        0x0 ../bwlib\libmp3.a(synth.o)
 .bss           0x02086d90        0x0 ../bwlib\libmp3.a(bit.o)
 .bss           0x02086d90        0x0 ../bwlib\libmp3.a(frame.o)
 .bss           0x02086d90        0x0 ../bwlib\libmp3.a(layer12.o)
 .bss           0x02086d90        0x0 ../bwlib\libmp3.a(timer.o)
 .bss           0x02086d90        0x0 ../bwlib\libmp3.a(layer3.o)
 .bss           0x02086d90        0x0 ../bwlib\libmp3.a(huffman.o)
 .bss           0x02086d90        0x0 ../bwlib\libsd.a(ax32xx_sd.o)
 .bss           0x02086d90       0x68 ../bwlib\libavi.a(aviEncoder.o)
 .bss           0x02086df8        0x0 ../bwlib\libavi.a(encoder_std.o)
 .bss           0x02086df8        0x0 ../bwlib\libavi.a(encoder_odml.o)
 .bss           0x02086df8      0x11c ../bwlib\libavi.a(aviDecoder.o)
 .bss           0x02086f14        0x4 ../bwlib\libavi.a(decoder_std.o)
 .bss           0x02086f18        0x4 ../bwlib\libavi.a(decoder_odml.o)
 .bss           0x02086f1c      0x8c0 ../bwlib\libfs.a(fs.o)
 .bss           0x020877dc        0x0 ../bwlib\libfs.a(diskio.o)
 .bss           0x020877dc      0x208 ../bwlib\libfs.a(ff.o)
 .bss           0x020879e4        0x0 ../bwlib\libfs.a(ffunicode.o)
 .bss           0x020879e4        0x0 C:/MinGW-4.7.1/or1k-elf/lib/no-delay\libc.a(lib_a-memcmp.o)
 .bss           0x020879e4        0x0 C:/MinGW-4.7.1/or1k-elf/lib/no-delay\libc.a(lib_a-memcpy.o)
 .bss           0x020879e4        0x0 C:/MinGW-4.7.1/or1k-elf/lib/no-delay\libc.a(lib_a-memmove.o)
 .bss           0x020879e4        0x0 C:/MinGW-4.7.1/or1k-elf/lib/no-delay\libc.a(lib_a-memset.o)
 .bss           0x020879e4        0x0 C:/MinGW-4.7.1/or1k-elf/lib/no-delay\libc.a(lib_a-strcasecmp.o)
 .bss           0x020879e4        0x0 C:/MinGW-4.7.1/or1k-elf/lib/no-delay\libc.a(lib_a-strcat.o)
 .bss           0x020879e4        0x0 C:/MinGW-4.7.1/or1k-elf/lib/no-delay\libc.a(lib_a-strchr.o)
 .bss           0x020879e4        0x0 C:/MinGW-4.7.1/or1k-elf/lib/no-delay\libc.a(lib_a-strcmp.o)
 .bss           0x020879e4        0x0 C:/MinGW-4.7.1/or1k-elf/lib/no-delay\libc.a(lib_a-strcpy.o)
 .bss           0x020879e4        0x0 C:/MinGW-4.7.1/or1k-elf/lib/no-delay\libc.a(lib_a-strlen.o)
 .bss           0x020879e4        0x0 C:/MinGW-4.7.1/or1k-elf/lib/no-delay\libc.a(lib_a-strncmp.o)
 .bss           0x020879e4        0x0 C:/MinGW-4.7.1/or1k-elf/lib/no-delay\libc.a(lib_a-strstr.o)
 .bss           0x020879e4        0x0 C:/MinGW-4.7.1/or1k-elf/lib/no-delay\libc.a(lib_a-ctype_.o)
 .bss           0x020879e4        0x0 C:/MinGW-4.7.1/or1k-elf/lib/no-delay\libc.a(lib_a-memchr.o)
 .bss           0x020879e4        0x0 C:/MinGW-4.7.1/lib/gcc/or1k-elf/4.9.1/no-delay\libgcc.a(_muldi3.o)
 .bss           0x020879e4        0x0 C:/MinGW-4.7.1/lib/gcc/or1k-elf/4.9.1/no-delay\libgcc.a(_udivdi3.o)
 .bss           0x020879e4        0x0 C:/MinGW-4.7.1/lib/gcc/or1k-elf/4.9.1/no-delay\libgcc.a(addsf3.o)
 .bss           0x020879e4        0x0 C:/MinGW-4.7.1/lib/gcc/or1k-elf/4.9.1/no-delay\libgcc.a(divsf3.o)
 .bss           0x020879e4        0x0 C:/MinGW-4.7.1/lib/gcc/or1k-elf/4.9.1/no-delay\libgcc.a(eqsf2.o)
 .bss           0x020879e4        0x0 C:/MinGW-4.7.1/lib/gcc/or1k-elf/4.9.1/no-delay\libgcc.a(gesf2.o)
 .bss           0x020879e4        0x0 C:/MinGW-4.7.1/lib/gcc/or1k-elf/4.9.1/no-delay\libgcc.a(mulsf3.o)
 .bss           0x020879e4        0x0 C:/MinGW-4.7.1/lib/gcc/or1k-elf/4.9.1/no-delay\libgcc.a(fixunssfsi.o)
 .bss           0x020879e4        0x0 C:/MinGW-4.7.1/lib/gcc/or1k-elf/4.9.1/no-delay\libgcc.a(floatsisf.o)
 .bss           0x020879e4        0x0 C:/MinGW-4.7.1/lib/gcc/or1k-elf/4.9.1/no-delay\libgcc.a(floatunsisf.o)
 .bss           0x020879e4        0x0 C:/MinGW-4.7.1/lib/gcc/or1k-elf/4.9.1/no-delay\libgcc.a(__udivsi3.o)
 .bss           0x020879e4        0x0 C:/MinGW-4.7.1/lib/gcc/or1k-elf/4.9.1/no-delay\libgcc.a(__umodsi3.o)
 .bss           0x020879e4        0x0 C:/MinGW-4.7.1/lib/gcc/or1k-elf/4.9.1/no-delay\libgcc.a(_clz.o)
 .bss           0x020879e4        0x0 C:/MinGW-4.7.1/lib/gcc/or1k-elf/4.9.1/no-delay\libgcc.a(_clzsi2.o)
 *(COMMON)
 COMMON         0x020879e4     0x102c ./Debug/main.c.o
                0x020879e4                fp11_epout_isr_hal
                0x020879e8                usb_varm
                0x02087a04                WAV_TYPE_E
                0x02087a08                dec_lheight
                0x02087a0c                SysCtrl
                0x02087a80                fp_epout_isr_hal
                0x02087a84                mjpegEncCtrl
                0x02088904                HAL_CFG_MJPEG_WIDTH
                0x02088908                dec_lwidth
                0x0208890c                jpeg_photo_cache
                0x020889fc                HAL_CFG_MJPEG_HEIGHT
                0x02088a00                fp_uac_unit_ctl_hal
                0x02088a04                fp_UacHandleToStreaming
                0x02088a08                EP0WaitForSetReqData
                0x02088a0c                CHANNEL_EXCHANGE_E
 COMMON         0x02088a10       0x20 ./Debug/logo.c.o
                0x02088a10                version_str
 COMMON         0x02088a30       0x38 ./Debug/taskVideoRecord.c.o
                0x02088a30                tempFileName2
                0x02088a4c                tempFileName1
 COMMON         0x02088a68        0x1 ./Debug/userInterface.c.o
                0x02088a68                jump_process_type
 *fill*         0x02088a69        0x3 
 COMMON         0x02088a6c        0x8 ./Debug/upgrade.c.o
                0x02088a6c                strHandle
                0x02088a70                progressBar
 COMMON         0x02088a74       0x89 ./Debug/game_block.c.o
                0x02088a74                block_cnt
                0x02088a78                ball_num
                0x02088a7c                power_up_sum
                0x02088a80                power_up_rand_list
                0x02088ac8                power_up_num
                0x02088acc                game_block_breaker_page_encode
                0x02088ace                game_boundary
                0x02088ad8                block_item
                0x02088ae8                board_move_cnt
                0x02088aea                effect_cnt
                0x02088aec                board_a
                0x02088afc                life_num
 *fill*         0x02088afd        0x3 
 COMMON         0x02088b00        0xc ./Debug/game_snake.c.o
                0x02088b00                food
                0x02088b04                snake_p
                0x02088b08                head
 COMMON         0x02088b0c        0x4 ./Debug/taskGame.c.o
                0x02088b0c                gameEntry
 COMMON         0x02088b10      0x290 ./Debug/game_plane.c.o
                0x02088b10                enemy_bullet_c
                0x02088bb0                my_Plane_c
                0x02088bc0                enemy_Plane_c
                0x02088c60                P_boom
                0x02088d00                my_bullet_c
 COMMON         0x02088da0       0x58 ./Debug/game_maze.c.o
                0x02088da0                maze_map
 COMMON         0x02088df8        0x1 ./Debug/xos_xos.c.o
                0x02088df8                XOSNesting
 *fill*         0x02088df9        0x3 
 COMMON         0x02088dfc       0x74 ./Debug/multimedia_user_media.c.o
                0x02088dfc                jpegCache
                0x02088e00                audsIStack
                0x02088e0c                jpegBStack
                0x02088e14                audioCache
                0x02088e18                aviIdx1CacheB
                0x02088e1c                audsTStack
                0x02088e28                vidsBStack
                0x02088e3c                jpegIStack
                0x02088e44                audsBStack
                0x02088e50                thumbnailUVBuffer
                0x02088e54                aviIdx1Cache
                0x02088e58                thumbnailYBuffer
                0x02088e5c                vidsIStack
 COMMON         0x02088e70        0x8 ./Debug/src_ax32xx_int.c.o
                0x02088e70                fp_usb_isr
                0x02088e74                fp_usb11_isr
 COMMON         0x02088e78        0x1 ./Debug/src_ax32xx_sys.c.o
                0x02088e78                smph_dmacopy
 *fill*         0x02088e79        0x3 
 COMMON         0x02088e7c        0x4 ./Debug/src_ax32xx_wdt.c.o
                0x02088e7c                wdt_en
 COMMON         0x02088e80       0x10 ./Debug/src_ax32xx_timer.c.o
                0x02088e80                timerISR
 COMMON         0x02088e90        0x8 ./Debug/src_ax32xx_rtc.c.o
                0x02088e90                rtcSecondISR
                0x02088e94                rtcAlamISR
 COMMON         0x02088e98       0x20 ./Debug/src_ax32xx_usb.c.o
                0x02088e98                fp11_host_connect_hal
                0x02088e9c                sofcnt
                0x02088ea0                fp_host_remove_hal
                0x02088ea4                fp11_host_remove_hal
                0x02088ea8                mscbusy
                0x02088eac                fp_host11_remove_hal
                0x02088eb0                fp_host11_connect_hal
                0x02088eb4                fp_host_connect_hal
 COMMON         0x02088eb8        0x4 ./Debug/csi_ax32xx_csi.c.o
                0x02088eb8                csifcnt
 COMMON         0x02088ebc       0x14 ./Debug/lcd_ax32xx_lcd.c.o
                0x02088ebc                ax32xx_lcdISR
 COMMON         0x02088ed0       0x68 ./Debug/mjpeg_ax32xx_mjpeg.c.o
                0x02088ed0                fp_jpegdc_ldone_hal
                0x02088ed4                block_scaler_tab
                0x02088f34                javgsize
 COMMON         0x02088f38       0x14 ./Debug/src_hal_csi.c.o
                0x02088f38                snser
 COMMON         0x02088f4c        0x4 ./Debug/src_hal_sd.c.o
                0x02088f4c                speed
 COMMON         0x02088f50        0x4 ./Debug/src_hal_auadc.c.o
                0x02088f50                pcm_buf
 COMMON         0x02088f54       0xb0 ./Debug/src_hal_mjpeg.c.o
                0x02088f54                jpeg_rev_buf
                0x02088f9c                photoQueue
                0x02088fec                tempYuvAddr
 COMMON         0x02089004      0x334 ./Debug/src_hal_lcdframe.c.o
                0x02089004                dfm
 COMMON         0x02089338       0x28 ./Debug/src_hal_custom_yuv.c.o
                0x02089338                yuv_add_s
 COMMON         0x02089360       0x3d ./Debug/dusb_hal_usb_dev_enum.c.o
                0x02089360                fp_uvc_off_hal
                0x02089364                fp_uvc_on_hal
                0x02089368                uac_onflg
                0x0208936a                usb_rqu
                0x02089374                fp_uac_on_hal
                0x02089378                usb_dev
                0x02089394                pSetReqCallback
                0x02089398                fp_uac_off_hal
                0x0208939c                uvc_onflg
 *fill*         0x0208939d        0x3 
 COMMON         0x020893a0       0x80 ./Debug/dusb_hal_usb_msc.c.o
                0x020893a0                scsi
                0x020893b8                fp_disk_rd
                0x020893bc                fp_disk_cap
                0x020893c0                fp_disk_online
                0x020893c4                fp_usb_bulk_tx
                0x020893c8                fp_disk_stop
                0x020893cc                fp_usb_bulk_rx
                0x020893d0                fp_disk_busy
                0x020893d4                fp_disk_free
                0x020893d8                fp_disk_wr
                0x020893dc                MscCmd
 COMMON         0x02089420       0x10 ./Debug/dusb_hal_usb_uac.c.o
                0x02089420                UacSampFreq
                0x02089423                uaconflg
                0x02089424                UacMuteControl
                0x02089428                UacVolCtrlSettings
 COMMON         0x02089430       0x18 ./Debug/dusb_hal_usb_uvc.c.o
                0x02089430                ptgl
                0x02089434                fp_usb_ep0_tx
                0x02089438                fp_uvc_probe_ctl_hal
                0x0208943c                fp_uvc_unit_ctl_ex_hal
                0x02089440                fp_usb_iso_tx
                0x02089444                fp_uvc_unit_ctl_hal
 COMMON         0x02089448       0x88 ./Debug/video_video_record.c.o
                0x02089448                mediaVideoCtrl
 *fill*         0x020894d0       0x10 
 COMMON         0x020894e0       0xa8 ./Debug/cmos_sensor_cmos_sensor.c.o
                0x020894e0                devSensor_Cmd
                0x02089540                devSensor_Ident
 *fill*         0x02089588       0x18 
 COMMON         0x020895a0      0x448 ./Debug/res_unicode_font.c.o
                0x020895a0                mp3_unicode_buf
                0x020895c0                mp3font
                0x020895e0                mp3_font_group
 COMMON         0x020899e8      0x224 ../bwlib\libmp3.a(mp3_decode_api.o)
                0x020899e8                mp3_file
                0x02089a00                mp3_dec_op
                0x02089a04                mp3_pcm_fifo
 COMMON         0x02089c0c     0x4000 ../bwlib\libfs.a(fs.o)
                0x02089c0c                clmt
 COMMON         0x0208dc0c       0x18 ../bwlib\libfs.a(diskio.o)
                0x0208dc0c                fp_tmnow
                0x0208dc10                fp_storage_wr
                0x0208dc14                fp_f_write
                0x0208dc18                fp_storage_sta
                0x0208dc1c                fp_storage_rd
                0x0208dc20                fp_storage_init
 *(.buff.clmt)
 *(.big_buffer*)
 *fill*         0x0208dc24       0x1c 
 .big_buffer    0x0208dc40     0xa000 ./Debug/sUI_winManage.c.o
 .big_buffer    0x02097c40      0x400 ./Debug/src_hal_sys.c.o
                0x02097c40                halSysMemLineCache
 *(._urx_buf_)
 ._urx_buf_     0x02098040      0x234 ../bwlib\libfs.a(fs.o)
                0x02098040                work_fatfs
                0x02098280                _sdram_remian_addr = (ALIGN (0x40) + 0x0)

.before_load    0x00002000        0x0 load address 0x00082600
                0x00002000                _before_load_vma = .
 *(.before_load.entry)
 *(.before_load)

.lcd_resource   0x00000000      0x49c load address 0x00082600
 *(.lcd_res.header)
 .lcd_res.header
                0x00000000       0x38 ./Debug/tft_lcd_tft_lcd.c.o
                0x00000000                lcdheader
                0x00000038                _res_lcd_struct_start = .
 *(.lcd_res.struct)
 .lcd_res.struct
                0x00000038      0x24c ./Debug/tft_lcd_lcd_mcu_st7789P3.c.o
                0x00000038                st7789v
                0x00000284                _res_lcd_struct_end = .
 *(.lcd_res.init_tab)
 .lcd_res.init_tab
                0x00000284      0x218 ./Debug/tft_lcd_lcd_mcu_st7789P3.c.o
 *(.lcd_res.gamma_tab)
 *(.lcd_res.contra_tab)

.sensor_resource
                0x00000000      0xd30 load address 0x00082a9c
 *(.sensor_res.header)
 .sensor_res.header
                0x00000000       0x40 ./Debug/cmos_sensor_cmos_sensor.c.o
                0x00000000                SensorHeader
                0x00000040                _res_sensor_header_item_start = .
 *(.sensor_res.header.items)
 .sensor_res.header.items
                0x00000040       0x48 ./Debug/cmos_sensor_SENSOR_BF3a03.c.o
                0x00000040                bf3a03_init
 .sensor_res.header.items
                0x00000088       0x48 ./Debug/cmos_sensor_SENSOR_GC0309.c.o
                0x00000088                gc0309_init
 .sensor_res.header.items
                0x000000d0       0x48 ./Debug/cmos_sensor_SENSOR_OV7670.c.o
                0x000000d0                ov7670_init
 .sensor_res.header.items
                0x00000118       0x48 ./Debug/cmos_sensor_SENSOR_GC0329.c.o
                0x00000118                gc0329_init
 .sensor_res.header.items
                0x00000160       0x48 ./Debug/cmos_sensor_SENSOR_SIV100B.c.o
                0x00000160                SIV100B_init
 .sensor_res.header.items
                0x000001a8       0x48 ./Debug/cmos_sensor_SENSOR_BF20A6.c.o
                0x000001a8                bf20a6_init
                0x000001f0                _res_sensor_header_item_end = .
 *(.sensor_res.isp_tab)
 *(.sensor_res.struct)
 .sensor_res.struct
                0x000001f0       0x60 ./Debug/cmos_sensor_SENSOR_BF3a03.c.o
 .sensor_res.struct
                0x00000250       0x60 ./Debug/cmos_sensor_SENSOR_GC0309.c.o
 .sensor_res.struct
                0x000002b0       0x60 ./Debug/cmos_sensor_SENSOR_OV7670.c.o
 .sensor_res.struct
                0x00000310       0x60 ./Debug/cmos_sensor_SENSOR_GC0329.c.o
 .sensor_res.struct
                0x00000370       0x60 ./Debug/cmos_sensor_SENSOR_SIV100B.c.o
 .sensor_res.struct
                0x000003d0       0x60 ./Debug/cmos_sensor_SENSOR_BF20A6.c.o
 *(.sensor_res.init_tab)
 .sensor_res.init_tab
                0x00000430      0x118 ./Debug/cmos_sensor_SENSOR_BF3a03.c.o
 .sensor_res.init_tab
                0x00000548      0x18c ./Debug/cmos_sensor_SENSOR_GC0309.c.o
 .sensor_res.init_tab
                0x000006d4      0x164 ./Debug/cmos_sensor_SENSOR_OV7670.c.o
 .sensor_res.init_tab
                0x00000838      0x210 ./Debug/cmos_sensor_SENSOR_GC0329.c.o
 .sensor_res.init_tab
                0x00000a48      0x198 ./Debug/cmos_sensor_SENSOR_SIV100B.c.o
 .sensor_res.init_tab
                0x00000be0      0x150 ./Debug/cmos_sensor_SENSOR_BF20A6.c.o

.eh_frame       0x00000d30     0xf05c load address 0x000837cc
 *(.eh_frame)
 .eh_frame      0x00000d30       0xa8 ./Debug/main.c.o
 .eh_frame      0x00000dd8      0x428 ./Debug/resource_manager.c.o
                                0x43c (size before relaxing)
 .eh_frame      0x00001200       0x88 ./Debug/board.c.o
                                 0x9c (size before relaxing)
 .eh_frame      0x00001288      0x270 ./Debug/board_bwv1.c.o
                                0x284 (size before relaxing)
 .eh_frame      0x000014f8       0xb0 ./Debug/config.c.o
                                 0xc4 (size before relaxing)
 .eh_frame      0x000015a8      0x278 ./Debug/display.c.o
                                0x28c (size before relaxing)
 .eh_frame      0x00001820      0x214 ./Debug/filelist.c.o
                                0x228 (size before relaxing)
 .eh_frame      0x00001a34      0x11c ./Debug/font.c.o
                                0x130 (size before relaxing)
 .eh_frame      0x00001b50       0xc4 ./Debug/icon.c.o
                                 0xd8 (size before relaxing)
 .eh_frame      0x00001c14       0x1c ./Debug/configGetValue.c.o
                                 0x30 (size before relaxing)
 .eh_frame      0x00001c30       0x58 ./Debug/configSystem.c.o
                                 0x6c (size before relaxing)
 .eh_frame      0x00001c88      0x10c ./Debug/logo.c.o
                                0x120 (size before relaxing)
 .eh_frame      0x00001d94       0x70 ./Debug/menuMovieRec.c.o
                                 0x84 (size before relaxing)
 .eh_frame      0x00001e04       0x98 ./Debug/msgDeal.c.o
                                 0xac (size before relaxing)
 .eh_frame      0x00001e9c       0x7c ./Debug/msgSysRecommend.c.o
                                 0x90 (size before relaxing)
 .eh_frame      0x00001f18      0x178 ./Debug/msgSysUnshielded.c.o
                                0x18c (size before relaxing)
 .eh_frame      0x00002090       0xf8 ./Debug/taskManage.c.o
                                0x10c (size before relaxing)
 .eh_frame      0x00002188      0x114 ./Debug/taskPhotoEncode.c.o
                                0x128 (size before relaxing)
 .eh_frame      0x0000229c      0x2b0 ./Debug/taskPhotoEncodeMsg.c.o
                                0x2c4 (size before relaxing)
 .eh_frame      0x0000254c       0x9c ./Debug/taskPlayBack.c.o
                                 0xb0 (size before relaxing)
 .eh_frame      0x000025e8      0x2a0 ./Debug/taskPlayBackMsg.c.o
                                0x2b4 (size before relaxing)
 .eh_frame      0x00002888       0x40 ./Debug/taskPowerOff.c.o
                                 0x54 (size before relaxing)
 .eh_frame      0x000028c8      0x1e8 ./Debug/taskSysScanDevice.c.o
                                0x1fc (size before relaxing)
 .eh_frame      0x00002ab0      0x110 ./Debug/taskUsbDevice.c.o
                                0x124 (size before relaxing)
 .eh_frame      0x00002bc0      0x128 ./Debug/taskVideoRecord.c.o
                                0x13c (size before relaxing)
 .eh_frame      0x00002ce8      0x328 ./Debug/taskVideoRecordMsg.c.o
                                0x33c (size before relaxing)
 .eh_frame      0x00003010       0x34 ./Debug/toolFunc.c.o
                                 0x48 (size before relaxing)
 .eh_frame      0x00003044      0x164 ./Debug/uiMenuDateTimeMsg.c.o
                                0x178 (size before relaxing)
 .eh_frame      0x000031a8       0xf0 ./Debug/uiMenuDefaultMsg.c.o
                                0x104 (size before relaxing)
 .eh_frame      0x00003298       0xc4 ./Debug/uiMenuDelAllMsg.c.o
                                 0xd8 (size before relaxing)
 .eh_frame      0x0000335c       0xdc ./Debug/uiMenuDelCurMsg.c.o
                                 0xf0 (size before relaxing)
 .eh_frame      0x00003438       0xfc ./Debug/uiMenuFormatMsg.c.o
                                0x110 (size before relaxing)
 .eh_frame      0x00003534      0x1a8 ./Debug/uiMenuItemMsg.c.o
                                0x1bc (size before relaxing)
 .eh_frame      0x000036dc      0x14c ./Debug/uiMenuOptionMsg.c.o
                                0x160 (size before relaxing)
 .eh_frame      0x00003828      0x104 ./Debug/uiMenuUsbMsg.c.o
                                0x118 (size before relaxing)
 .eh_frame      0x0000392c       0xa0 ./Debug/uiNoFileMsg.c.o
                                 0xb4 (size before relaxing)
 .eh_frame      0x000039cc      0x13c ./Debug/uiTips1Msg.c.o
                                0x150 (size before relaxing)
 .eh_frame      0x00003b08      0x13c ./Debug/uiTipsMsg.c.o
                                0x150 (size before relaxing)
 .eh_frame      0x00003c44       0x94 ./Debug/uiWin.c.o
                                 0xa8 (size before relaxing)
 .eh_frame      0x00003cd8       0xa0 ./Debug/uiMenuVersionMsg.c.o
                                 0xb4 (size before relaxing)
 .eh_frame      0x00003d78       0x54 ./Debug/taskAudioPlayer.c.o
                                 0x68 (size before relaxing)
 .eh_frame      0x00003dcc      0x2e0 ./Debug/taskAudioPlayerMsg.c.o
                                0x2f4 (size before relaxing)
 .eh_frame      0x000040ac       0x50 ./Debug/taskMainMenu.c.o
                                 0x64 (size before relaxing)
 .eh_frame      0x000040fc      0x128 ./Debug/taskMainMenuMsg.c.o
                                0x13c (size before relaxing)
 .eh_frame      0x00004224       0x4c ./Debug/taskSettingMenu.c.o
                                 0x60 (size before relaxing)
 .eh_frame      0x00004270      0x1f4 ./Debug/userInterface.c.o
                                0x208 (size before relaxing)
 .eh_frame      0x00004464       0x80 ./Debug/upgrade.c.o
                                 0x94 (size before relaxing)
 .eh_frame      0x000044e4      0x70c ./Debug/game_block.c.o
                                0x720 (size before relaxing)
 .eh_frame      0x00004bf0      0x244 ./Debug/game_snake.c.o
                                0x258 (size before relaxing)
 .eh_frame      0x00004e34      0x174 ./Debug/game_sokoban.c.o
                                0x188 (size before relaxing)
 .eh_frame      0x00004fa8      0x2b4 ./Debug/game_tetris.c.o
                                0x2c8 (size before relaxing)
 .eh_frame      0x0000525c      0x310 ./Debug/taskGame.c.o
                                0x324 (size before relaxing)
 .eh_frame      0x0000556c       0x50 ./Debug/taskGameMenu.c.o
                                 0x64 (size before relaxing)
 .eh_frame      0x000055bc      0x140 ./Debug/taskGameMenuMsg.c.o
                                0x154 (size before relaxing)
 .eh_frame      0x000056fc      0x254 ./Debug/game_plane.c.o
                                0x268 (size before relaxing)
 .eh_frame      0x00005950      0x14c ./Debug/game_maze.c.o
                                0x160 (size before relaxing)
 .eh_frame      0x00005a9c       0x8c ./Debug/xos_xmbox.c.o
                                 0xa0 (size before relaxing)
 .eh_frame      0x00005b28       0xd4 ./Debug/xos_xmsgq.c.o
                                 0xe8 (size before relaxing)
 .eh_frame      0x00005bfc       0x80 ./Debug/xos_xos.c.o
                                 0x94 (size before relaxing)
 .eh_frame      0x00005c7c       0x70 ./Debug/xos_xwork.c.o
                                 0x84 (size before relaxing)
 .eh_frame      0x00005cec      0x114 ./Debug/multimedia_user_media.c.o
                                0x128 (size before relaxing)
 .eh_frame      0x00005e00       0x58 ./Debug/sUI_button.c.o
                                 0x6c (size before relaxing)
 .eh_frame      0x00005e58       0x40 ./Debug/sUI_dialog.c.o
                                 0x54 (size before relaxing)
 .eh_frame      0x00005e98       0x58 ./Debug/sUI_frameWin.c.o
                                 0x6c (size before relaxing)
 .eh_frame      0x00005ef0       0x58 ./Debug/sUI_imageIcon.c.o
                                 0x6c (size before relaxing)
 .eh_frame      0x00005f48      0x370 ./Debug/sUI_itemManage.c.o
                                0x384 (size before relaxing)
 .eh_frame      0x000062b8       0x64 ./Debug/sUI_menuItem.c.o
                                 0x78 (size before relaxing)
 .eh_frame      0x0000631c       0x64 ./Debug/sUI_menuItemEx.c.o
                                 0x78 (size before relaxing)
 .eh_frame      0x00006380       0x64 ./Debug/sUI_menuOption.c.o
                                 0x78 (size before relaxing)
 .eh_frame      0x000063e4       0x70 ./Debug/sUI_progressBar.c.o
                                 0x84 (size before relaxing)
 .eh_frame      0x00006454       0x58 ./Debug/sUI_rect.c.o
                                 0x6c (size before relaxing)
 .eh_frame      0x000064ac       0x58 ./Debug/sUI_stringIcon.c.o
                                 0x6c (size before relaxing)
 .eh_frame      0x00006504       0x58 ./Debug/sUI_tips.c.o
                                 0x6c (size before relaxing)
 .eh_frame      0x0000655c       0x84 ./Debug/sUI_uiAlloc.c.o
                                 0x98 (size before relaxing)
 .eh_frame      0x000065e0       0x80 ./Debug/sUI_widget.c.o
                                 0x94 (size before relaxing)
 .eh_frame      0x00006660      0x4b0 ./Debug/sUI_winManage.c.o
                                0x4c4 (size before relaxing)
 .eh_frame      0x00006b10       0x60 ./Debug/sUI_memPool.c.o
                                 0x74 (size before relaxing)
 .eh_frame      0x00006b70      0x104 ./Debug/sUI_widgetManage.c.o
                                0x118 (size before relaxing)
 .eh_frame      0x00006c74      0x300 ./Debug/src_ax32xx_int.c.o
                                0x314 (size before relaxing)
 .eh_frame      0x00006f74      0x20c ./Debug/src_ax32xx_sys.c.o
                                0x220 (size before relaxing)
 .eh_frame      0x00007180       0x5c ./Debug/src_ax32xx_dma.c.o
                                 0x70 (size before relaxing)
 .eh_frame      0x000071dc       0x60 ./Debug/src_ax32xx_wdt.c.o
                                 0x74 (size before relaxing)
 .eh_frame      0x0000723c      0x210 ./Debug/src_ax32xx_gpio.c.o
                                0x224 (size before relaxing)
 .eh_frame      0x0000744c       0x6c ./Debug/src_ax32xx_uart.c.o
                                 0x80 (size before relaxing)
 .eh_frame      0x000074b8      0x180 ./Debug/src_ax32xx_timer.c.o
                                0x194 (size before relaxing)
 .eh_frame      0x00007638      0x110 ./Debug/src_ax32xx_tminf.c.o
                                0x124 (size before relaxing)
 .eh_frame      0x00007748      0x174 ./Debug/src_ax32xx_spi.c.o
                                0x188 (size before relaxing)
 .eh_frame      0x000078bc      0x2ac ./Debug/src_ax32xx_rtc.c.o
                                0x2c0 (size before relaxing)
 .eh_frame      0x00007b68      0x2c8 ./Debug/src_ax32xx_iic.c.o
                                0x2dc (size before relaxing)
 .eh_frame      0x00007e30      0x198 ./Debug/src_ax32xx_dac.c.o
                                0x1ac (size before relaxing)
 .eh_frame      0x00007fc8       0x64 ./Debug/src_ax32xx_adc.c.o
                                 0x78 (size before relaxing)
 .eh_frame      0x0000802c      0x110 ./Debug/src_ax32xx_auadc.c.o
                                0x124 (size before relaxing)
 .eh_frame      0x0000813c       0x38 ./Debug/src_jpeg_table.c.o
                                 0x4c (size before relaxing)
 .eh_frame      0x00008174      0x2e8 ./Debug/src_ax32xx_usb.c.o
                                0x2fc (size before relaxing)
 .eh_frame      0x0000845c       0xc0 ./Debug/src_ax32xx_misc.c.o
                                 0xd4 (size before relaxing)
 .eh_frame      0x0000851c       0x80 ./Debug/src_ax32xx_pip.c.o
                                 0x94 (size before relaxing)
 .eh_frame      0x0000859c       0xa4 ./Debug/src_ax32xx_emi.c.o
                                 0xb8 (size before relaxing)
 .eh_frame      0x00008640       0xc0 ./Debug/src_ax32xx_rotate.c.o
                                 0xd4 (size before relaxing)
 .eh_frame      0x00008700       0xe0 ./Debug/src_ax32xx_osdcmp.c.o
                                 0xf4 (size before relaxing)
 .eh_frame      0x000087e0       0x18 ./Debug/src_ax32xx_isp.c.o
                                 0x2c (size before relaxing)
 .eh_frame      0x000087f8      0x3dc ./Debug/osd_ax32xx_osd.c.o
                                0x3f0 (size before relaxing)
 .eh_frame      0x00008bd4      0x390 ./Debug/csi_ax32xx_csi.c.o
                                0x3a4 (size before relaxing)
 .eh_frame      0x00008f64      0x378 ./Debug/lcd_ax32xx_lcd.c.o
                                0x38c (size before relaxing)
 .eh_frame      0x000092dc      0x564 ./Debug/mjpeg_ax32xx_mjpeg.c.o
                                0x578 (size before relaxing)
 .eh_frame      0x00009840       0x8c ./Debug/src_hal_adc.c.o
                                 0xa0 (size before relaxing)
 .eh_frame      0x000098cc       0x84 ./Debug/src_hal_csi.c.o
                                 0x98 (size before relaxing)
 .eh_frame      0x00009950       0xe0 ./Debug/src_hal_dac.c.o
                                 0xf4 (size before relaxing)
 .eh_frame      0x00009a30      0x130 ./Debug/src_hal_gpio.c.o
                                0x144 (size before relaxing)
 .eh_frame      0x00009b60      0x168 ./Debug/src_hal_iic.c.o
                                0x17c (size before relaxing)
 .eh_frame      0x00009cc8      0x42c ./Debug/src_hal_lcd.c.o
                                0x440 (size before relaxing)
 .eh_frame      0x0000a0f4      0x22c ./Debug/src_hal_osd.c.o
                                0x240 (size before relaxing)
 .eh_frame      0x0000a320      0x25c ./Debug/src_hal_rtc.c.o
                                0x270 (size before relaxing)
 .eh_frame      0x0000a57c      0x1e8 ./Debug/src_hal_sd.c.o
                                0x1fc (size before relaxing)
 .eh_frame      0x0000a764      0x30c ./Debug/src_hal_spi.c.o
                                0x320 (size before relaxing)
 .eh_frame      0x0000aa70       0xc4 ./Debug/src_hal_timer.c.o
                                 0xd8 (size before relaxing)
 .eh_frame      0x0000ab34      0x1b0 ./Debug/src_hal_uart.c.o
                                0x1c4 (size before relaxing)
 .eh_frame      0x0000ace4      0x174 ./Debug/src_hal_watermark.c.o
                                0x188 (size before relaxing)
 .eh_frame      0x0000ae58       0xa4 ./Debug/src_hal_sys.c.o
                                 0xb8 (size before relaxing)
 .eh_frame      0x0000aefc      0x2d8 ./Debug/src_hal_auadc.c.o
                                0x2ec (size before relaxing)
 .eh_frame      0x0000b1d4      0x760 ./Debug/src_hal_mjpeg.c.o
                                0x774 (size before relaxing)
 .eh_frame      0x0000b934       0x1c ./Debug/src_hal_int.c.o
                                 0x30 (size before relaxing)
 .eh_frame      0x0000b950       0xd8 ./Debug/src_hal_stream.c.o
                                 0xec (size before relaxing)
 .eh_frame      0x0000ba28       0x7c ./Debug/src_hal_osdcmp.c.o
                                 0x90 (size before relaxing)
 .eh_frame      0x0000baa4       0x80 ./Debug/src_hal_rotate.c.o
                                 0x94 (size before relaxing)
 .eh_frame      0x0000bb24       0xe4 ./Debug/src_hal_lcdframe.c.o
                                 0xf8 (size before relaxing)
 .eh_frame      0x0000bc08       0xd0 ./Debug/src_hal_custom_yuv.c.o
                                 0xe4 (size before relaxing)
 .eh_frame      0x0000bcd8      0x1c8 ./Debug/dusb_hal_usb_api.c.o
                                0x1dc (size before relaxing)
 .eh_frame      0x0000bea0      0x368 ./Debug/dusb_hal_usb_dev_enum.c.o
                                0x37c (size before relaxing)
 .eh_frame      0x0000c208      0x400 ./Debug/dusb_hal_usb_msc.c.o
                                0x414 (size before relaxing)
 .eh_frame      0x0000c608       0xac ./Debug/dusb_hal_usb_uac.c.o
                                 0xc0 (size before relaxing)
 .eh_frame      0x0000c6b4      0x1fc ./Debug/dusb_hal_usb_uvc.c.o
                                0x210 (size before relaxing)
 .eh_frame      0x0000c8b0      0x174 ./Debug/audio_audio_playback.c.o
                                0x188 (size before relaxing)
 .eh_frame      0x0000ca24       0xa0 ./Debug/audio_ring_buffer.c.o
                                 0xb4 (size before relaxing)
 .eh_frame      0x0000cac4      0x258 ./Debug/video_video_playback.c.o
                                0x26c (size before relaxing)
 .eh_frame      0x0000cd1c      0x338 ./Debug/video_video_record.c.o
                                0x34c (size before relaxing)
 .eh_frame      0x0000d054       0x94 ./Debug/image_image_decode.c.o
                                 0xa8 (size before relaxing)
 .eh_frame      0x0000d0e8       0x5c ./Debug/image_image_encode.c.o
                                 0x70 (size before relaxing)
 .eh_frame      0x0000d144       0x40 ./Debug/wav_pcm.c.o
                                 0x54 (size before relaxing)
 .eh_frame      0x0000d184      0x19c ./Debug/wav_wav.c.o
                                0x1b0 (size before relaxing)
 .eh_frame      0x0000d320       0x44 ./Debug/stream_stream.c.o
                                 0x58 (size before relaxing)
 .eh_frame      0x0000d364      0x20c ./Debug/cmos_sensor_cmos_sensor.c.o
                                0x220 (size before relaxing)
 .eh_frame      0x0000d570       0xe4 ./Debug/tft_lcd_tft_lcd.c.o
                                 0xf8 (size before relaxing)
 .eh_frame      0x0000d654       0xc8 ./Debug/nvfs_nvfs.c.o
                                 0xdc (size before relaxing)
 .eh_frame      0x0000d71c      0x1b4 ./Debug/Maxlib_max_user.c.o
                                0x1c8 (size before relaxing)
 .eh_frame      0x0000d8d0      0x298 ./Debug/Maxlib_uiDraw.c.o
                                0x2ac (size before relaxing)
 .eh_frame      0x0000db68       0x88 ./Debug/std_misc.c.o
                                 0x9c (size before relaxing)
 .eh_frame      0x0000dbf0       0x1c ./Debug/res_ascii.c.o
                                 0x30 (size before relaxing)
 .eh_frame      0x0000dc0c       0x1c ./Debug/res_ascii_default_draw.c.o
                                 0x30 (size before relaxing)
 .eh_frame      0x0000dc28      0x174 ./Debug/res_R.c.o
                                0x188 (size before relaxing)
 .eh_frame      0x0000dd9c       0xf0 ./Debug/res_R_icon.c.o
                                0x104 (size before relaxing)
 .eh_frame      0x0000de8c       0x90 ./Debug/res_R_string.c.o
                                 0xa4 (size before relaxing)
 .eh_frame      0x0000df1c       0xb0 ./Debug/res_unicode_font.c.o
                                 0xc4 (size before relaxing)
 .eh_frame      0x0000dfcc       0x1c ./Debug/res_ascii_num3_draw.c.o
                                 0x30 (size before relaxing)
 .eh_frame      0x0000dfe8      0x18c ../bwlib\liblimage.a(imageL_encode.o)
                                0x1a0 (size before relaxing)
 .eh_frame      0x0000e174      0x178 ../bwlib\libeffect.a(user_effect.o)
                                0x18c (size before relaxing)
 .eh_frame      0x0000e2ec      0x254 ../bwlib\libmp3.a(mp3_decode_api.o)
                                0x268 (size before relaxing)
 .eh_frame      0x0000e540       0x98 ../bwlib\libmp3.a(decoder.o)
                                 0xac (size before relaxing)
 .eh_frame      0x0000e5d8       0xa4 ../bwlib\libmp3.a(stream.o)
                                 0xb8 (size before relaxing)
 .eh_frame      0x0000e67c       0xdc ../bwlib\libmp3.a(synth.o)
                                 0xf0 (size before relaxing)
 .eh_frame      0x0000e758       0xa0 ../bwlib\libmp3.a(bit.o)
                                 0xb4 (size before relaxing)
 .eh_frame      0x0000e7f8      0x100 ../bwlib\libmp3.a(frame.o)
                                0x114 (size before relaxing)
 .eh_frame      0x0000e8f8       0x9c ../bwlib\libmp3.a(layer12.o)
                                 0xb0 (size before relaxing)
 .eh_frame      0x0000e994      0x10c ../bwlib\libmp3.a(timer.o)
                                0x120 (size before relaxing)
 .eh_frame      0x0000eaa0      0x12c ../bwlib\libmp3.a(layer3.o)
                                0x140 (size before relaxing)
 .eh_frame      0x0000ebcc      0x168 ../bwlib\libsd.a(ax32xx_sd.o)
                                0x17c (size before relaxing)
 .eh_frame      0x0000ed34      0x154 ../bwlib\libavi.a(aviEncoder.o)
                                0x168 (size before relaxing)
 .eh_frame      0x0000ee88       0xa4 ../bwlib\libavi.a(encoder_std.o)
                                 0xb8 (size before relaxing)
 .eh_frame      0x0000ef2c      0x134 ../bwlib\libavi.a(encoder_odml.o)
                                0x148 (size before relaxing)
 .eh_frame      0x0000f060      0x1b0 ../bwlib\libavi.a(aviDecoder.o)
                                0x1c4 (size before relaxing)
 .eh_frame      0x0000f210       0x90 ../bwlib\libavi.a(decoder_std.o)
                                 0xa4 (size before relaxing)
 .eh_frame      0x0000f2a0       0x94 ../bwlib\libavi.a(decoder_odml.o)
                                 0xa8 (size before relaxing)
 .eh_frame      0x0000f334      0x234 ../bwlib\libfs.a(fs.o)
                                0x248 (size before relaxing)
 .eh_frame      0x0000f568       0xc0 ../bwlib\libfs.a(diskio.o)
                                 0xd4 (size before relaxing)
 .eh_frame      0x0000f628      0x6e8 ../bwlib\libfs.a(ff.o)
                                0x6fc (size before relaxing)
 .eh_frame      0x0000fd10       0x50 ../bwlib\libfs.a(ffunicode.o)
                                 0x64 (size before relaxing)
 .eh_frame      0x0000fd60       0x2c C:/MinGW-4.7.1/lib/gcc/or1k-elf/4.9.1/no-delay\libgcc.a(_udivdi3.o)
                                 0x40 (size before relaxing)
                0x00000010                _exception_len = ((SIZEOF (.exception) + 0x1ff) / 0x200)
                0x00000001                _exception_sec = (LOADADDR (.exception) / 0x200)
                0x00000011                _text_sec = (LOADADDR (.text) / 0x200)
                0x00000402                _text_len = (((_text_end - _text_start) + 0x1ff) / 0x200)
                0x00000000                _before_load_len = ((SIZEOF (.before_load) + 0x1ff) / 0x200)
                0x00000413                _before_load_sec = (LOADADDR (.before_load) / 0x200)
                0x00001400                __stack_size = 0x1400
                0x00166980                __sdram_remain_size = (((ORIGIN (sdram) + 0x200000) - _sdram_remian_addr) - __stack_size)
                0x00000001                ASSERT ((((ORIGIN (sdram) + 0x200000) - _sdram_remian_addr) >= __stack_size), No memroy for stack)
                0x021fec00                __bss_end = (_sdram_remian_addr + __sdram_remain_size)
                0x00082600                _lcd_resource_start_addr = LOADADDR (.lcd_resource)
                0x0000024c                _lcd_resource_size = (_res_lcd_struct_end - _res_lcd_struct_start)
                0x00082a9c                _sensor_resource_start_addr = LOADADDR (.sensor_resource)
                0x000001b0                _res_sensor_header_len = (_res_sensor_header_item_end - _res_sensor_header_item_start)
                0x021ffffc                PROVIDE (__stack, ((ORIGIN (sdram) + 0x200000) - 0x4))
OUTPUT(./Debug/ax329x_sdk.elf elf32-or1k)

.rela.dyn       0x0000fd8c        0x0 load address 0x00092828
 .rela.vector   0x00000000        0x0 ./Debug/ax32xx_reset.S.o
 .rela.bootsec  0x00000000        0x0 ./Debug/ax32xx_reset.S.o
 .rela.text     0x00000000        0x0 ./Debug/ax32xx_reset.S.o
 .rela.text.startup
                0x00000000        0x0 ./Debug/ax32xx_reset.S.o
 .rela.data     0x00000000        0x0 ./Debug/ax32xx_reset.S.o
 .rela.rodata   0x00000000        0x0 ./Debug/ax32xx_reset.S.o
 .rela.vector.text
                0x00000000        0x0 ./Debug/ax32xx_reset.S.o
 .rela.sensor_res.header
                0x00000000        0x0 ./Debug/ax32xx_reset.S.o
 .rela.lcd_res.header
                0x00000000        0x0 ./Debug/ax32xx_reset.S.o

.comment        0x00000000       0x11
 .comment       0x00000000       0x11 ./Debug/main.c.o
                                 0x12 (size before relaxing)
 .comment       0x00000000       0x12 ./Debug/resource_manager.c.o
 .comment       0x00000000       0x12 ./Debug/board.c.o
 .comment       0x00000000       0x12 ./Debug/board_bwv1.c.o
 .comment       0x00000000       0x12 ./Debug/config.c.o
 .comment       0x00000000       0x12 ./Debug/display.c.o
 .comment       0x00000000       0x12 ./Debug/explorer.c.o
 .comment       0x00000000       0x12 ./Debug/filelist.c.o
 .comment       0x00000000       0x12 ./Debug/font.c.o
 .comment       0x00000000       0x12 ./Debug/icon.c.o
 .comment       0x00000000       0x12 ./Debug/configGetValue.c.o
 .comment       0x00000000       0x12 ./Debug/configSystem.c.o
 .comment       0x00000000       0x12 ./Debug/logo.c.o
 .comment       0x00000000       0x12 ./Debug/menuMovieRec.c.o
 .comment       0x00000000       0x12 ./Debug/msgDeal.c.o
 .comment       0x00000000       0x12 ./Debug/msgSysRecommend.c.o
 .comment       0x00000000       0x12 ./Debug/msgSysUnshielded.c.o
 .comment       0x00000000       0x12 ./Debug/taskManage.c.o
 .comment       0x00000000       0x12 ./Debug/taskPhotoEncode.c.o
 .comment       0x00000000       0x12 ./Debug/taskPhotoEncodeMsg.c.o
 .comment       0x00000000       0x12 ./Debug/taskPlayBack.c.o
 .comment       0x00000000       0x12 ./Debug/taskPlayBackMsg.c.o
 .comment       0x00000000       0x12 ./Debug/taskPowerOff.c.o
 .comment       0x00000000       0x12 ./Debug/taskSysScanDevice.c.o
 .comment       0x00000000       0x12 ./Debug/taskUsbDevice.c.o
 .comment       0x00000000       0x12 ./Debug/taskVideoRecord.c.o
 .comment       0x00000000       0x12 ./Debug/taskVideoRecordMsg.c.o
 .comment       0x00000000       0x12 ./Debug/toolFunc.c.o
 .comment       0x00000000       0x12 ./Debug/uiMenuDateTimeMsg.c.o
 .comment       0x00000000       0x12 ./Debug/uiMenuDefaultMsg.c.o
 .comment       0x00000000       0x12 ./Debug/uiMenuDelAllMsg.c.o
 .comment       0x00000000       0x12 ./Debug/uiMenuDelCurMsg.c.o
 .comment       0x00000000       0x12 ./Debug/uiMenuFormatMsg.c.o
 .comment       0x00000000       0x12 ./Debug/uiMenuItemMsg.c.o
 .comment       0x00000000       0x12 ./Debug/uiMenuOptionMsg.c.o
 .comment       0x00000000       0x12 ./Debug/uiMenuUsbMsg.c.o
 .comment       0x00000000       0x12 ./Debug/uiNoFileMsg.c.o
 .comment       0x00000000       0x12 ./Debug/uiTips1Msg.c.o
 .comment       0x00000000       0x12 ./Debug/uiTipsMsg.c.o
 .comment       0x00000000       0x12 ./Debug/uiWin.c.o
 .comment       0x00000000       0x12 ./Debug/uiMenuVersionMsg.c.o
 .comment       0x00000000       0x12 ./Debug/taskAudioPlayer.c.o
 .comment       0x00000000       0x12 ./Debug/taskAudioPlayerMsg.c.o
 .comment       0x00000000       0x12 ./Debug/taskAudioPlayerRes.c.o
 .comment       0x00000000       0x12 ./Debug/taskPhotoEncodeRes.c.o
 .comment       0x00000000       0x12 ./Debug/taskPlayBackRes.c.o
 .comment       0x00000000       0x12 ./Debug/taskVideoRecordRes.c.o
 .comment       0x00000000       0x12 ./Debug/uiMenuDateTimeRes.c.o
 .comment       0x00000000       0x12 ./Debug/uiMenuDefaultRes.c.o
 .comment       0x00000000       0x12 ./Debug/uiMenuDelAllRes.c.o
 .comment       0x00000000       0x12 ./Debug/uiMenuDelCurRes.c.o
 .comment       0x00000000       0x12 ./Debug/uiMenuFormatRes.c.o
 .comment       0x00000000       0x12 ./Debug/uiMenuItemRes.c.o
 .comment       0x00000000       0x12 ./Debug/uiMenuOptionRes.c.o
 .comment       0x00000000       0x12 ./Debug/uiMenuUsbRes.c.o
 .comment       0x00000000       0x12 ./Debug/uiMenuVersionRes.c.o
 .comment       0x00000000       0x12 ./Debug/uiNoFileRes.c.o
 .comment       0x00000000       0x12 ./Debug/uiTips1Res.c.o
 .comment       0x00000000       0x12 ./Debug/uiTipsRes.c.o
 .comment       0x00000000       0x12 ./Debug/taskMainMenu.c.o
 .comment       0x00000000       0x12 ./Debug/taskMainMenuMsg.c.o
 .comment       0x00000000       0x12 ./Debug/taskMainMenuRes.c.o
 .comment       0x00000000       0x12 ./Debug/taskSettingMenu.c.o
 .comment       0x00000000       0x12 ./Debug/userInterface.c.o
 .comment       0x00000000       0x12 ./Debug/upgrade.c.o
 .comment       0x00000000       0x12 ./Debug/game_block.c.o
 .comment       0x00000000       0x12 ./Debug/game_snake.c.o
 .comment       0x00000000       0x12 ./Debug/game_sokoban.c.o
 .comment       0x00000000       0x12 ./Debug/game_tetris.c.o
 .comment       0x00000000       0x12 ./Debug/taskGame.c.o
 .comment       0x00000000       0x12 ./Debug/taskGameMenu.c.o
 .comment       0x00000000       0x12 ./Debug/taskGameMenuMsg.c.o
 .comment       0x00000000       0x12 ./Debug/taskGameMenuRes.c.o
 .comment       0x00000000       0x12 ./Debug/game_plane.c.o
 .comment       0x00000000       0x12 ./Debug/game_maze.c.o
 .comment       0x00000000       0x12 ./Debug/xos_x_cpu.c.o
 .comment       0x00000000       0x12 ./Debug/xos_xmbox.c.o
 .comment       0x00000000       0x12 ./Debug/xos_xmsgq.c.o
 .comment       0x00000000       0x12 ./Debug/xos_xos.c.o
 .comment       0x00000000       0x12 ./Debug/xos_xwork.c.o
 .comment       0x00000000       0x12 ./Debug/multimedia_user_media.c.o
 .comment       0x00000000       0x12 ./Debug/sUI_button.c.o
 .comment       0x00000000       0x12 ./Debug/sUI_dialog.c.o
 .comment       0x00000000       0x12 ./Debug/sUI_frameWin.c.o
 .comment       0x00000000       0x12 ./Debug/sUI_imageIcon.c.o
 .comment       0x00000000       0x12 ./Debug/sUI_itemManage.c.o
 .comment       0x00000000       0x12 ./Debug/sUI_menuItem.c.o
 .comment       0x00000000       0x12 ./Debug/sUI_menuItemEx.c.o
 .comment       0x00000000       0x12 ./Debug/sUI_menuOption.c.o
 .comment       0x00000000       0x12 ./Debug/sUI_progressBar.c.o
 .comment       0x00000000       0x12 ./Debug/sUI_rect.c.o
 .comment       0x00000000       0x12 ./Debug/sUI_stringIcon.c.o
 .comment       0x00000000       0x12 ./Debug/sUI_tips.c.o
 .comment       0x00000000       0x12 ./Debug/sUI_uiAlloc.c.o
 .comment       0x00000000       0x12 ./Debug/sUI_widget.c.o
 .comment       0x00000000       0x12 ./Debug/sUI_winManage.c.o
 .comment       0x00000000       0x12 ./Debug/sUI_memPool.c.o
 .comment       0x00000000       0x12 ./Debug/sUI_widgetManage.c.o
 .comment       0x00000000       0x12 ./Debug/src_ax32xx_int.c.o
 .comment       0x00000000       0x12 ./Debug/src_ax32xx_sys.c.o
 .comment       0x00000000       0x12 ./Debug/src_ax32xx_dma.c.o
 .comment       0x00000000       0x12 ./Debug/src_ax32xx_wdt.c.o
 .comment       0x00000000       0x12 ./Debug/src_ax32xx_gpio.c.o
 .comment       0x00000000       0x12 ./Debug/src_ax32xx_uart.c.o
 .comment       0x00000000       0x12 ./Debug/src_ax32xx_timer.c.o
 .comment       0x00000000       0x12 ./Debug/src_ax32xx_tminf.c.o
 .comment       0x00000000       0x12 ./Debug/src_ax32xx_spi.c.o
 .comment       0x00000000       0x12 ./Debug/src_ax32xx_rtc.c.o
 .comment       0x00000000       0x12 ./Debug/src_ax32xx_iic.c.o
 .comment       0x00000000       0x12 ./Debug/src_ax32xx_dac.c.o
 .comment       0x00000000       0x12 ./Debug/src_ax32xx_adc.c.o
 .comment       0x00000000       0x12 ./Debug/src_ax32xx_auadc.c.o
 .comment       0x00000000       0x12 ./Debug/src_jpeg_table.c.o
 .comment       0x00000000       0x12 ./Debug/src_ax32xx_usb.c.o
 .comment       0x00000000       0x12 ./Debug/src_ax32xx_misc.c.o
 .comment       0x00000000       0x12 ./Debug/src_ax32xx_pip.c.o
 .comment       0x00000000       0x12 ./Debug/src_ax32xx_btuart.c.o
 .comment       0x00000000       0x12 ./Debug/src_ax32xx_crc.c.o
 .comment       0x00000000       0x12 ./Debug/src_ax32xx_emi.c.o
 .comment       0x00000000       0x12 ./Debug/src_ax32xx_rotate.c.o
 .comment       0x00000000       0x12 ./Debug/src_ax32xx_osdcmp.c.o
 .comment       0x00000000       0x12 ./Debug/src_ax32xx_isp.c.o
 .comment       0x00000000       0x12 ./Debug/osd_ax32xx_osd.c.o
 .comment       0x00000000       0x12 ./Debug/csi_ax32xx_csi.c.o
 .comment       0x00000000       0x12 ./Debug/lcd_ax32xx_lcd.c.o
 .comment       0x00000000       0x12 ./Debug/mjpeg_ax32xx_mjpeg.c.o
 .comment       0x00000000       0x12 ./Debug/resource_user_icon.c.o
 .comment       0x00000000       0x12 ./Debug/resource_user_str.c.o
 .comment       0x00000000       0x12 ./Debug/src_hal_adc.c.o
 .comment       0x00000000       0x12 ./Debug/src_hal_csi.c.o
 .comment       0x00000000       0x12 ./Debug/src_hal_dac.c.o
 .comment       0x00000000       0x12 ./Debug/src_hal_eeprom.c.o
 .comment       0x00000000       0x12 ./Debug/src_hal_gpio.c.o
 .comment       0x00000000       0x12 ./Debug/src_hal_iic.c.o
 .comment       0x00000000       0x12 ./Debug/src_hal_lcd.c.o
 .comment       0x00000000       0x12 ./Debug/src_hal_osd.c.o
 .comment       0x00000000       0x12 ./Debug/src_hal_rtc.c.o
 .comment       0x00000000       0x12 ./Debug/src_hal_sd.c.o
 .comment       0x00000000       0x12 ./Debug/src_hal_spi.c.o
 .comment       0x00000000       0x12 ./Debug/src_hal_timer.c.o
 .comment       0x00000000       0x12 ./Debug/src_hal_uart.c.o
 .comment       0x00000000       0x12 ./Debug/src_hal_watermark.c.o
 .comment       0x00000000       0x12 ./Debug/src_hal_sys.c.o
 .comment       0x00000000       0x12 ./Debug/src_hal_auadc.c.o
 .comment       0x00000000       0x12 ./Debug/src_hal_mjpeg.c.o
 .comment       0x00000000       0x12 ./Debug/src_hal_int.c.o
 .comment       0x00000000       0x12 ./Debug/src_hal_wdt.c.o
 .comment       0x00000000       0x12 ./Debug/src_hal_stream.c.o
 .comment       0x00000000       0x12 ./Debug/src_hal_emi.c.o
 .comment       0x00000000       0x12 ./Debug/src_hal_osdcmp.c.o
 .comment       0x00000000       0x12 ./Debug/src_hal_rotate.c.o
 .comment       0x00000000       0x12 ./Debug/src_hal_lcdframe.c.o
 .comment       0x00000000       0x12 ./Debug/src_hal_custom_yuv.c.o
 .comment       0x00000000       0x12 ./Debug/dusb_hal_usb_api.c.o
 .comment       0x00000000       0x12 ./Debug/dusb_hal_usb_dev_enum.c.o
 .comment       0x00000000       0x12 ./Debug/dusb_hal_usb_msc.c.o
 .comment       0x00000000       0x12 ./Debug/dusb_hal_usb_uac.c.o
 .comment       0x00000000       0x12 ./Debug/dusb_hal_usb_uvc.c.o
 .comment       0x00000000       0x12 ./Debug/audio_audio_playback.c.o
 .comment       0x00000000       0x12 ./Debug/audio_audio_record.c.o
 .comment       0x00000000       0x12 ./Debug/audio_ring_buffer.c.o
 .comment       0x00000000       0x12 ./Debug/video_video_playback.c.o
 .comment       0x00000000       0x12 ./Debug/video_video_record.c.o
 .comment       0x00000000       0x12 ./Debug/image_image_decode.c.o
 .comment       0x00000000       0x12 ./Debug/image_image_encode.c.o
 .comment       0x00000000       0x12 ./Debug/wav_alaw.c.o
 .comment       0x00000000       0x12 ./Debug/wav_imaadpcm.c.o
 .comment       0x00000000       0x12 ./Debug/wav_pcm.c.o
 .comment       0x00000000       0x12 ./Debug/wav_ulaw.c.o
 .comment       0x00000000       0x12 ./Debug/wav_wav.c.o
 .comment       0x00000000       0x12 ./Debug/stream_stream.c.o
 .comment       0x00000000       0x12 ./Debug/cmos_sensor_cmos_sensor.c.o
 .comment       0x00000000       0x12 ./Debug/cmos_sensor_SENSOR_BF3a03.c.o
 .comment       0x00000000       0x12 ./Debug/cmos_sensor_SENSOR_BF2013.c.o
 .comment       0x00000000       0x12 ./Debug/cmos_sensor_SENSOR_BF3703.c.o
 .comment       0x00000000       0x12 ./Debug/cmos_sensor_SENSOR_GC0307.c.o
 .comment       0x00000000       0x12 ./Debug/cmos_sensor_SENSOR_GC0308.c.o
 .comment       0x00000000       0x12 ./Debug/cmos_sensor_SENSOR_GC0309.c.o
 .comment       0x00000000       0x12 ./Debug/cmos_sensor_SENSOR_GC0328.c.o
 .comment       0x00000000       0x12 ./Debug/cmos_sensor_SENSOR_OV7670.c.o
 .comment       0x00000000       0x12 ./Debug/cmos_sensor_SENSOR_SP0838.c.o
 .comment       0x00000000       0x12 ./Debug/cmos_sensor_SENSOR_SP0A18.c.o
 .comment       0x00000000       0x12 ./Debug/cmos_sensor_SENSOR_GC0329.c.o
 .comment       0x00000000       0x12 ./Debug/cmos_sensor_SENSOR_SIV100B.c.o
 .comment       0x00000000       0x12 ./Debug/tft_lcd_lcd_mcu_st7789P3.c.o
 .comment       0x00000000       0x12 ./Debug/cmos_sensor_SENSOR_BF20A6.c.o
 .comment       0x00000000       0x12 ./Debug/tft_lcd_lcd_mcu_st7789.c.o
 .comment       0x00000000       0x12 ./Debug/tft_lcd_tft_lcd.c.o
 .comment       0x00000000       0x12 ./Debug/tft_lcd_lcd_mcu_ili9328.c.o
 .comment       0x00000000       0x12 ./Debug/tft_lcd_lcd_mcu_st7789v.c.o
 .comment       0x00000000       0x12 ./Debug/tft_lcd_lcd_mcu_hx8352c.c.o
 .comment       0x00000000       0x12 ./Debug/tft_lcd_lcd_mcu_9225G.c.o
 .comment       0x00000000       0x12 ./Debug/tft_lcd_lcd_mcu_nv3030b.c.o
 .comment       0x00000000       0x12 ./Debug/nvfs_nvfs.c.o
 .comment       0x00000000       0x12 ./Debug/Maxlib_max_user.c.o
 .comment       0x00000000       0x12 ./Debug/Maxlib_uiDraw.c.o
 .comment       0x00000000       0x12 ./Debug/std_misc.c.o
 .comment       0x00000000       0x12 ./Debug/std_std_math.c.o
 .comment       0x00000000       0x12 ./Debug/std_str.c.o
 .comment       0x00000000       0x12 ./Debug/res_ascii.c.o
 .comment       0x00000000       0x12 ./Debug/res_ascii_default.c.o
 .comment       0x00000000       0x12 ./Debug/res_ascii_default_draw.c.o
 .comment       0x00000000       0x12 ./Debug/res_R.c.o
 .comment       0x00000000       0x12 ./Debug/res_R_icon.c.o
 .comment       0x00000000       0x12 ./Debug/res_R_string.c.o
 .comment       0x00000000       0x12 ./Debug/res_unicode_font.c.o
 .comment       0x00000000       0x12 ./Debug/res_ascii_num3.c.o
 .comment       0x00000000       0x12 ./Debug/res_ascii_num3_draw.c.o
 .comment       0x00000000       0x12 ../bwlib\liblimage.a(imageL_encode.o)
 .comment       0x00000000       0x12 ../bwlib\libeffect.a(user_effect.o)
 .comment       0x00000000       0x12 ../bwlib\libmp3.a(mp3_decode_api.o)
 .comment       0x00000000       0x12 ../bwlib\libmp3.a(decoder.o)
 .comment       0x00000000       0x12 ../bwlib\libmp3.a(stream.o)
 .comment       0x00000000       0x12 ../bwlib\libmp3.a(synth.o)
 .comment       0x00000000       0x12 ../bwlib\libmp3.a(bit.o)
 .comment       0x00000000       0x12 ../bwlib\libmp3.a(frame.o)
 .comment       0x00000000       0x12 ../bwlib\libmp3.a(layer12.o)
 .comment       0x00000000       0x12 ../bwlib\libmp3.a(timer.o)
 .comment       0x00000000       0x12 ../bwlib\libmp3.a(layer3.o)
 .comment       0x00000000       0x12 ../bwlib\libmp3.a(huffman.o)
 .comment       0x00000000       0x12 ../bwlib\libsd.a(ax32xx_sd.o)
 .comment       0x00000000       0x12 ../bwlib\libavi.a(aviEncoder.o)
 .comment       0x00000000       0x12 ../bwlib\libavi.a(encoder_std.o)
 .comment       0x00000000       0x12 ../bwlib\libavi.a(encoder_odml.o)
 .comment       0x00000000       0x12 ../bwlib\libavi.a(aviDecoder.o)
 .comment       0x00000000       0x12 ../bwlib\libavi.a(decoder_std.o)
 .comment       0x00000000       0x12 ../bwlib\libavi.a(decoder_odml.o)
 .comment       0x00000000       0x12 ../bwlib\libfs.a(fs.o)
 .comment       0x00000000       0x12 ../bwlib\libfs.a(diskio.o)
 .comment       0x00000000       0x12 ../bwlib\libfs.a(ff.o)
 .comment       0x00000000       0x12 ../bwlib\libfs.a(ffunicode.o)
 .comment       0x00000000       0x12 C:/MinGW-4.7.1/or1k-elf/lib/no-delay\libc.a(lib_a-memcmp.o)
 .comment       0x00000000       0x12 C:/MinGW-4.7.1/or1k-elf/lib/no-delay\libc.a(lib_a-memcpy.o)
 .comment       0x00000000       0x12 C:/MinGW-4.7.1/or1k-elf/lib/no-delay\libc.a(lib_a-memmove.o)
 .comment       0x00000000       0x12 C:/MinGW-4.7.1/or1k-elf/lib/no-delay\libc.a(lib_a-memset.o)
 .comment       0x00000000       0x12 C:/MinGW-4.7.1/or1k-elf/lib/no-delay\libc.a(lib_a-strcasecmp.o)
 .comment       0x00000000       0x12 C:/MinGW-4.7.1/or1k-elf/lib/no-delay\libc.a(lib_a-strcat.o)
 .comment       0x00000000       0x12 C:/MinGW-4.7.1/or1k-elf/lib/no-delay\libc.a(lib_a-strchr.o)
 .comment       0x00000000       0x12 C:/MinGW-4.7.1/or1k-elf/lib/no-delay\libc.a(lib_a-strcmp.o)
 .comment       0x00000000       0x12 C:/MinGW-4.7.1/or1k-elf/lib/no-delay\libc.a(lib_a-strcpy.o)
 .comment       0x00000000       0x12 C:/MinGW-4.7.1/or1k-elf/lib/no-delay\libc.a(lib_a-strlen.o)
 .comment       0x00000000       0x12 C:/MinGW-4.7.1/or1k-elf/lib/no-delay\libc.a(lib_a-strncmp.o)
 .comment       0x00000000       0x12 C:/MinGW-4.7.1/or1k-elf/lib/no-delay\libc.a(lib_a-strstr.o)
 .comment       0x00000000       0x12 C:/MinGW-4.7.1/or1k-elf/lib/no-delay\libc.a(lib_a-ctype_.o)
 .comment       0x00000000       0x12 C:/MinGW-4.7.1/or1k-elf/lib/no-delay\libc.a(lib_a-memchr.o)
 .comment       0x00000000       0x12 C:/MinGW-4.7.1/lib/gcc/or1k-elf/4.9.1/no-delay\libgcc.a(_muldi3.o)
 .comment       0x00000000       0x12 C:/MinGW-4.7.1/lib/gcc/or1k-elf/4.9.1/no-delay\libgcc.a(_udivdi3.o)
 .comment       0x00000000       0x12 C:/MinGW-4.7.1/lib/gcc/or1k-elf/4.9.1/no-delay\libgcc.a(addsf3.o)
 .comment       0x00000000       0x12 C:/MinGW-4.7.1/lib/gcc/or1k-elf/4.9.1/no-delay\libgcc.a(divsf3.o)
 .comment       0x00000000       0x12 C:/MinGW-4.7.1/lib/gcc/or1k-elf/4.9.1/no-delay\libgcc.a(eqsf2.o)
 .comment       0x00000000       0x12 C:/MinGW-4.7.1/lib/gcc/or1k-elf/4.9.1/no-delay\libgcc.a(gesf2.o)
 .comment       0x00000000       0x12 C:/MinGW-4.7.1/lib/gcc/or1k-elf/4.9.1/no-delay\libgcc.a(mulsf3.o)
 .comment       0x00000000       0x12 C:/MinGW-4.7.1/lib/gcc/or1k-elf/4.9.1/no-delay\libgcc.a(fixunssfsi.o)
 .comment       0x00000000       0x12 C:/MinGW-4.7.1/lib/gcc/or1k-elf/4.9.1/no-delay\libgcc.a(floatsisf.o)
 .comment       0x00000000       0x12 C:/MinGW-4.7.1/lib/gcc/or1k-elf/4.9.1/no-delay\libgcc.a(floatunsisf.o)
 .comment       0x00000000       0x12 C:/MinGW-4.7.1/lib/gcc/or1k-elf/4.9.1/no-delay\libgcc.a(_clz.o)
 .comment       0x00000000       0x12 C:/MinGW-4.7.1/lib/gcc/or1k-elf/4.9.1/no-delay\libgcc.a(_clzsi2.o)

.debug_info     0x00000000     0x2e4f
 .debug_info    0x00000000      0x113 C:/MinGW-4.7.1/or1k-elf/lib/no-delay\libc.a(lib_a-memcmp.o)
 .debug_info    0x00000113      0x131 C:/MinGW-4.7.1/or1k-elf/lib/no-delay\libc.a(lib_a-memcpy.o)
 .debug_info    0x00000244      0x131 C:/MinGW-4.7.1/or1k-elf/lib/no-delay\libc.a(lib_a-memmove.o)
 .debug_info    0x00000375      0x117 C:/MinGW-4.7.1/or1k-elf/lib/no-delay\libc.a(lib_a-memset.o)
 .debug_info    0x0000048c      0x155 C:/MinGW-4.7.1/or1k-elf/lib/no-delay\libc.a(lib_a-strcasecmp.o)
 .debug_info    0x000005e1      0x110 C:/MinGW-4.7.1/or1k-elf/lib/no-delay\libc.a(lib_a-strcat.o)
 .debug_info    0x000006f1      0x116 C:/MinGW-4.7.1/or1k-elf/lib/no-delay\libc.a(lib_a-strchr.o)
 .debug_info    0x00000807       0xdd C:/MinGW-4.7.1/or1k-elf/lib/no-delay\libc.a(lib_a-strcmp.o)
 .debug_info    0x000008e4      0x10e C:/MinGW-4.7.1/or1k-elf/lib/no-delay\libc.a(lib_a-strcpy.o)
 .debug_info    0x000009f2       0xdb C:/MinGW-4.7.1/or1k-elf/lib/no-delay\libc.a(lib_a-strlen.o)
 .debug_info    0x00000acd       0xf5 C:/MinGW-4.7.1/or1k-elf/lib/no-delay\libc.a(lib_a-strncmp.o)
 .debug_info    0x00000bc2      0x4e4 C:/MinGW-4.7.1/or1k-elf/lib/no-delay\libc.a(lib_a-strstr.o)
 .debug_info    0x000010a6       0x96 C:/MinGW-4.7.1/or1k-elf/lib/no-delay\libc.a(lib_a-ctype_.o)
 .debug_info    0x0000113c      0x12b C:/MinGW-4.7.1/or1k-elf/lib/no-delay\libc.a(lib_a-memchr.o)
 .debug_info    0x00001267      0x1ed C:/MinGW-4.7.1/lib/gcc/or1k-elf/4.9.1/no-delay\libgcc.a(_muldi3.o)
 .debug_info    0x00001454      0x71e C:/MinGW-4.7.1/lib/gcc/or1k-elf/4.9.1/no-delay\libgcc.a(_udivdi3.o)
 .debug_info    0x00001b72      0x2b7 C:/MinGW-4.7.1/lib/gcc/or1k-elf/4.9.1/no-delay\libgcc.a(addsf3.o)
 .debug_info    0x00001e29      0x2af C:/MinGW-4.7.1/lib/gcc/or1k-elf/4.9.1/no-delay\libgcc.a(divsf3.o)
 .debug_info    0x000020d8      0x1b6 C:/MinGW-4.7.1/lib/gcc/or1k-elf/4.9.1/no-delay\libgcc.a(eqsf2.o)
 .debug_info    0x0000228e      0x1d5 C:/MinGW-4.7.1/lib/gcc/or1k-elf/4.9.1/no-delay\libgcc.a(gesf2.o)
 .debug_info    0x00002463      0x310 C:/MinGW-4.7.1/lib/gcc/or1k-elf/4.9.1/no-delay\libgcc.a(mulsf3.o)
 .debug_info    0x00002773      0x17d C:/MinGW-4.7.1/lib/gcc/or1k-elf/4.9.1/no-delay\libgcc.a(fixunssfsi.o)
 .debug_info    0x000028f0      0x1c1 C:/MinGW-4.7.1/lib/gcc/or1k-elf/4.9.1/no-delay\libgcc.a(floatsisf.o)
 .debug_info    0x00002ab1      0x1ba C:/MinGW-4.7.1/lib/gcc/or1k-elf/4.9.1/no-delay\libgcc.a(floatunsisf.o)
 .debug_info    0x00002c6b       0xb9 C:/MinGW-4.7.1/lib/gcc/or1k-elf/4.9.1/no-delay\libgcc.a(_clz.o)
 .debug_info    0x00002d24      0x12b C:/MinGW-4.7.1/lib/gcc/or1k-elf/4.9.1/no-delay\libgcc.a(_clzsi2.o)

.debug_abbrev   0x00000000     0x1606
 .debug_abbrev  0x00000000       0x7f C:/MinGW-4.7.1/or1k-elf/lib/no-delay\libc.a(lib_a-memcmp.o)
 .debug_abbrev  0x0000007f       0xab C:/MinGW-4.7.1/or1k-elf/lib/no-delay\libc.a(lib_a-memcpy.o)
 .debug_abbrev  0x0000012a       0xab C:/MinGW-4.7.1/or1k-elf/lib/no-delay\libc.a(lib_a-memmove.o)
 .debug_abbrev  0x000001d5       0x9f C:/MinGW-4.7.1/or1k-elf/lib/no-delay\libc.a(lib_a-memset.o)
 .debug_abbrev  0x00000274       0xad C:/MinGW-4.7.1/or1k-elf/lib/no-delay\libc.a(lib_a-strcasecmp.o)
 .debug_abbrev  0x00000321       0xb3 C:/MinGW-4.7.1/or1k-elf/lib/no-delay\libc.a(lib_a-strcat.o)
 .debug_abbrev  0x000003d4       0x83 C:/MinGW-4.7.1/or1k-elf/lib/no-delay\libc.a(lib_a-strchr.o)
 .debug_abbrev  0x00000457       0x74 C:/MinGW-4.7.1/or1k-elf/lib/no-delay\libc.a(lib_a-strcmp.o)
 .debug_abbrev  0x000004cb       0x92 C:/MinGW-4.7.1/or1k-elf/lib/no-delay\libc.a(lib_a-strcpy.o)
 .debug_abbrev  0x0000055d       0x90 C:/MinGW-4.7.1/or1k-elf/lib/no-delay\libc.a(lib_a-strlen.o)
 .debug_abbrev  0x000005ed       0x81 C:/MinGW-4.7.1/or1k-elf/lib/no-delay\libc.a(lib_a-strncmp.o)
 .debug_abbrev  0x0000066e      0x1fb C:/MinGW-4.7.1/or1k-elf/lib/no-delay\libc.a(lib_a-strstr.o)
 .debug_abbrev  0x00000869       0x5d C:/MinGW-4.7.1/or1k-elf/lib/no-delay\libc.a(lib_a-ctype_.o)
 .debug_abbrev  0x000008c6       0xab C:/MinGW-4.7.1/or1k-elf/lib/no-delay\libc.a(lib_a-memchr.o)
 .debug_abbrev  0x00000971       0xfe C:/MinGW-4.7.1/lib/gcc/or1k-elf/4.9.1/no-delay\libgcc.a(_muldi3.o)
 .debug_abbrev  0x00000a6f      0x170 C:/MinGW-4.7.1/lib/gcc/or1k-elf/4.9.1/no-delay\libgcc.a(_udivdi3.o)
 .debug_abbrev  0x00000bdf      0x131 C:/MinGW-4.7.1/lib/gcc/or1k-elf/4.9.1/no-delay\libgcc.a(addsf3.o)
 .debug_abbrev  0x00000d10      0x120 C:/MinGW-4.7.1/lib/gcc/or1k-elf/4.9.1/no-delay\libgcc.a(divsf3.o)
 .debug_abbrev  0x00000e30      0x119 C:/MinGW-4.7.1/lib/gcc/or1k-elf/4.9.1/no-delay\libgcc.a(eqsf2.o)
 .debug_abbrev  0x00000f49      0x128 C:/MinGW-4.7.1/lib/gcc/or1k-elf/4.9.1/no-delay\libgcc.a(gesf2.o)
 .debug_abbrev  0x00001071      0x117 C:/MinGW-4.7.1/lib/gcc/or1k-elf/4.9.1/no-delay\libgcc.a(mulsf3.o)
 .debug_abbrev  0x00001188      0x10c C:/MinGW-4.7.1/lib/gcc/or1k-elf/4.9.1/no-delay\libgcc.a(fixunssfsi.o)
 .debug_abbrev  0x00001294      0x126 C:/MinGW-4.7.1/lib/gcc/or1k-elf/4.9.1/no-delay\libgcc.a(floatsisf.o)
 .debug_abbrev  0x000013ba      0x131 C:/MinGW-4.7.1/lib/gcc/or1k-elf/4.9.1/no-delay\libgcc.a(floatunsisf.o)
 .debug_abbrev  0x000014eb       0x5d C:/MinGW-4.7.1/lib/gcc/or1k-elf/4.9.1/no-delay\libgcc.a(_clz.o)
 .debug_abbrev  0x00001548       0xbe C:/MinGW-4.7.1/lib/gcc/or1k-elf/4.9.1/no-delay\libgcc.a(_clzsi2.o)

.debug_loc      0x00000000     0x5434
 .debug_loc     0x00000000      0x102 C:/MinGW-4.7.1/or1k-elf/lib/no-delay\libc.a(lib_a-memcmp.o)
 .debug_loc     0x00000102      0x2ed C:/MinGW-4.7.1/or1k-elf/lib/no-delay\libc.a(lib_a-memcpy.o)
 .debug_loc     0x000003ef      0x366 C:/MinGW-4.7.1/or1k-elf/lib/no-delay\libc.a(lib_a-memmove.o)
 .debug_loc     0x00000755      0x1ba C:/MinGW-4.7.1/or1k-elf/lib/no-delay\libc.a(lib_a-memset.o)
 .debug_loc     0x0000090f      0x199 C:/MinGW-4.7.1/or1k-elf/lib/no-delay\libc.a(lib_a-strcasecmp.o)
 .debug_loc     0x00000aa8       0x9c C:/MinGW-4.7.1/or1k-elf/lib/no-delay\libc.a(lib_a-strcat.o)
 .debug_loc     0x00000b44      0x13a C:/MinGW-4.7.1/or1k-elf/lib/no-delay\libc.a(lib_a-strchr.o)
 .debug_loc     0x00000c7e       0xb0 C:/MinGW-4.7.1/or1k-elf/lib/no-delay\libc.a(lib_a-strcmp.o)
 .debug_loc     0x00000d2e       0xc7 C:/MinGW-4.7.1/or1k-elf/lib/no-delay\libc.a(lib_a-strcpy.o)
 .debug_loc     0x00000df5       0x47 C:/MinGW-4.7.1/or1k-elf/lib/no-delay\libc.a(lib_a-strlen.o)
 .debug_loc     0x00000e3c       0xce C:/MinGW-4.7.1/or1k-elf/lib/no-delay\libc.a(lib_a-strncmp.o)
 .debug_loc     0x00000f0a      0xa9f C:/MinGW-4.7.1/or1k-elf/lib/no-delay\libc.a(lib_a-strstr.o)
 .debug_loc     0x000019a9      0x1cd C:/MinGW-4.7.1/or1k-elf/lib/no-delay\libc.a(lib_a-memchr.o)
 .debug_loc     0x00001b76      0x142 C:/MinGW-4.7.1/lib/gcc/or1k-elf/4.9.1/no-delay\libgcc.a(_muldi3.o)
 .debug_loc     0x00001cb8     0x14c2 C:/MinGW-4.7.1/lib/gcc/or1k-elf/4.9.1/no-delay\libgcc.a(_udivdi3.o)
 .debug_loc     0x0000317a      0xb77 C:/MinGW-4.7.1/lib/gcc/or1k-elf/4.9.1/no-delay\libgcc.a(addsf3.o)
 .debug_loc     0x00003cf1      0x852 C:/MinGW-4.7.1/lib/gcc/or1k-elf/4.9.1/no-delay\libgcc.a(divsf3.o)
 .debug_loc     0x00004543       0x6f C:/MinGW-4.7.1/lib/gcc/or1k-elf/4.9.1/no-delay\libgcc.a(eqsf2.o)
 .debug_loc     0x000045b2       0xa7 C:/MinGW-4.7.1/lib/gcc/or1k-elf/4.9.1/no-delay\libgcc.a(gesf2.o)
 .debug_loc     0x00004659      0x817 C:/MinGW-4.7.1/lib/gcc/or1k-elf/4.9.1/no-delay\libgcc.a(mulsf3.o)
 .debug_loc     0x00004e70       0xfd C:/MinGW-4.7.1/lib/gcc/or1k-elf/4.9.1/no-delay\libgcc.a(fixunssfsi.o)
 .debug_loc     0x00004f6d      0x23e C:/MinGW-4.7.1/lib/gcc/or1k-elf/4.9.1/no-delay\libgcc.a(floatsisf.o)
 .debug_loc     0x000051ab      0x20f C:/MinGW-4.7.1/lib/gcc/or1k-elf/4.9.1/no-delay\libgcc.a(floatunsisf.o)
 .debug_loc     0x000053ba       0x7a C:/MinGW-4.7.1/lib/gcc/or1k-elf/4.9.1/no-delay\libgcc.a(_clzsi2.o)

.debug_aranges  0x00000000      0x330
 .debug_aranges
                0x00000000       0x20 C:/MinGW-4.7.1/or1k-elf/lib/no-delay\libc.a(lib_a-memcmp.o)
 .debug_aranges
                0x00000020       0x20 C:/MinGW-4.7.1/or1k-elf/lib/no-delay\libc.a(lib_a-memcpy.o)
 .debug_aranges
                0x00000040       0x20 C:/MinGW-4.7.1/or1k-elf/lib/no-delay\libc.a(lib_a-memmove.o)
 .debug_aranges
                0x00000060       0x20 C:/MinGW-4.7.1/or1k-elf/lib/no-delay\libc.a(lib_a-memset.o)
 .debug_aranges
                0x00000080       0x20 C:/MinGW-4.7.1/or1k-elf/lib/no-delay\libc.a(lib_a-strcasecmp.o)
 .debug_aranges
                0x000000a0       0x20 C:/MinGW-4.7.1/or1k-elf/lib/no-delay\libc.a(lib_a-strcat.o)
 .debug_aranges
                0x000000c0       0x20 C:/MinGW-4.7.1/or1k-elf/lib/no-delay\libc.a(lib_a-strchr.o)
 .debug_aranges
                0x000000e0       0x20 C:/MinGW-4.7.1/or1k-elf/lib/no-delay\libc.a(lib_a-strcmp.o)
 .debug_aranges
                0x00000100       0x20 C:/MinGW-4.7.1/or1k-elf/lib/no-delay\libc.a(lib_a-strcpy.o)
 .debug_aranges
                0x00000120       0x20 C:/MinGW-4.7.1/or1k-elf/lib/no-delay\libc.a(lib_a-strlen.o)
 .debug_aranges
                0x00000140       0x20 C:/MinGW-4.7.1/or1k-elf/lib/no-delay\libc.a(lib_a-strncmp.o)
 .debug_aranges
                0x00000160       0x20 C:/MinGW-4.7.1/or1k-elf/lib/no-delay\libc.a(lib_a-strstr.o)
 .debug_aranges
                0x00000180       0x18 C:/MinGW-4.7.1/or1k-elf/lib/no-delay\libc.a(lib_a-ctype_.o)
 .debug_aranges
                0x00000198       0x20 C:/MinGW-4.7.1/or1k-elf/lib/no-delay\libc.a(lib_a-memchr.o)
 .debug_aranges
                0x000001b8       0x20 C:/MinGW-4.7.1/lib/gcc/or1k-elf/4.9.1/no-delay\libgcc.a(_muldi3.o)
 .debug_aranges
                0x000001d8       0x20 C:/MinGW-4.7.1/lib/gcc/or1k-elf/4.9.1/no-delay\libgcc.a(_udivdi3.o)
 .debug_aranges
                0x000001f8       0x20 C:/MinGW-4.7.1/lib/gcc/or1k-elf/4.9.1/no-delay\libgcc.a(addsf3.o)
 .debug_aranges
                0x00000218       0x20 C:/MinGW-4.7.1/lib/gcc/or1k-elf/4.9.1/no-delay\libgcc.a(divsf3.o)
 .debug_aranges
                0x00000238       0x20 C:/MinGW-4.7.1/lib/gcc/or1k-elf/4.9.1/no-delay\libgcc.a(eqsf2.o)
 .debug_aranges
                0x00000258       0x20 C:/MinGW-4.7.1/lib/gcc/or1k-elf/4.9.1/no-delay\libgcc.a(gesf2.o)
 .debug_aranges
                0x00000278       0x20 C:/MinGW-4.7.1/lib/gcc/or1k-elf/4.9.1/no-delay\libgcc.a(mulsf3.o)
 .debug_aranges
                0x00000298       0x20 C:/MinGW-4.7.1/lib/gcc/or1k-elf/4.9.1/no-delay\libgcc.a(fixunssfsi.o)
 .debug_aranges
                0x000002b8       0x20 C:/MinGW-4.7.1/lib/gcc/or1k-elf/4.9.1/no-delay\libgcc.a(floatsisf.o)
 .debug_aranges
                0x000002d8       0x20 C:/MinGW-4.7.1/lib/gcc/or1k-elf/4.9.1/no-delay\libgcc.a(floatunsisf.o)
 .debug_aranges
                0x000002f8       0x18 C:/MinGW-4.7.1/lib/gcc/or1k-elf/4.9.1/no-delay\libgcc.a(_clz.o)
 .debug_aranges
                0x00000310       0x20 C:/MinGW-4.7.1/lib/gcc/or1k-elf/4.9.1/no-delay\libgcc.a(_clzsi2.o)

.debug_line     0x00000000     0x1d15
 .debug_line    0x00000000      0x12b C:/MinGW-4.7.1/or1k-elf/lib/no-delay\libc.a(lib_a-memcmp.o)
 .debug_line    0x0000012b      0x132 C:/MinGW-4.7.1/or1k-elf/lib/no-delay\libc.a(lib_a-memcpy.o)
 .debug_line    0x0000025d      0x13a C:/MinGW-4.7.1/or1k-elf/lib/no-delay\libc.a(lib_a-memmove.o)
 .debug_line    0x00000397      0x13b C:/MinGW-4.7.1/or1k-elf/lib/no-delay\libc.a(lib_a-memset.o)
 .debug_line    0x000004d2      0x102 C:/MinGW-4.7.1/or1k-elf/lib/no-delay\libc.a(lib_a-strcasecmp.o)
 .debug_line    0x000005d4       0xd2 C:/MinGW-4.7.1/or1k-elf/lib/no-delay\libc.a(lib_a-strcat.o)
 .debug_line    0x000006a6       0xf5 C:/MinGW-4.7.1/or1k-elf/lib/no-delay\libc.a(lib_a-strchr.o)
 .debug_line    0x0000079b       0xec C:/MinGW-4.7.1/or1k-elf/lib/no-delay\libc.a(lib_a-strcmp.o)
 .debug_line    0x00000887       0xdb C:/MinGW-4.7.1/or1k-elf/lib/no-delay\libc.a(lib_a-strcpy.o)
 .debug_line    0x00000962      0x11f C:/MinGW-4.7.1/or1k-elf/lib/no-delay\libc.a(lib_a-strlen.o)
 .debug_line    0x00000a81      0x16c C:/MinGW-4.7.1/or1k-elf/lib/no-delay\libc.a(lib_a-strncmp.o)
 .debug_line    0x00000bed      0x2ed C:/MinGW-4.7.1/or1k-elf/lib/no-delay\libc.a(lib_a-strstr.o)
 .debug_line    0x00000eda       0xa6 C:/MinGW-4.7.1/or1k-elf/lib/no-delay\libc.a(lib_a-ctype_.o)
 .debug_line    0x00000f80      0x137 C:/MinGW-4.7.1/or1k-elf/lib/no-delay\libc.a(lib_a-memchr.o)
 .debug_line    0x000010b7       0x9f C:/MinGW-4.7.1/lib/gcc/or1k-elf/4.9.1/no-delay\libgcc.a(_muldi3.o)
 .debug_line    0x00001156      0x145 C:/MinGW-4.7.1/lib/gcc/or1k-elf/4.9.1/no-delay\libgcc.a(_udivdi3.o)
 .debug_line    0x0000129b      0x29e C:/MinGW-4.7.1/lib/gcc/or1k-elf/4.9.1/no-delay\libgcc.a(addsf3.o)
 .debug_line    0x00001539      0x170 C:/MinGW-4.7.1/lib/gcc/or1k-elf/4.9.1/no-delay\libgcc.a(divsf3.o)
 .debug_line    0x000016a9       0xc3 C:/MinGW-4.7.1/lib/gcc/or1k-elf/4.9.1/no-delay\libgcc.a(eqsf2.o)
 .debug_line    0x0000176c       0xd4 C:/MinGW-4.7.1/lib/gcc/or1k-elf/4.9.1/no-delay\libgcc.a(gesf2.o)
 .debug_line    0x00001840      0x156 C:/MinGW-4.7.1/lib/gcc/or1k-elf/4.9.1/no-delay\libgcc.a(mulsf3.o)
 .debug_line    0x00001996       0xb2 C:/MinGW-4.7.1/lib/gcc/or1k-elf/4.9.1/no-delay\libgcc.a(fixunssfsi.o)
 .debug_line    0x00001a48       0xd1 C:/MinGW-4.7.1/lib/gcc/or1k-elf/4.9.1/no-delay\libgcc.a(floatsisf.o)
 .debug_line    0x00001b19       0xc4 C:/MinGW-4.7.1/lib/gcc/or1k-elf/4.9.1/no-delay\libgcc.a(floatunsisf.o)
 .debug_line    0x00001bdd       0x5c C:/MinGW-4.7.1/lib/gcc/or1k-elf/4.9.1/no-delay\libgcc.a(_clz.o)
 .debug_line    0x00001c39       0xdc C:/MinGW-4.7.1/lib/gcc/or1k-elf/4.9.1/no-delay\libgcc.a(_clzsi2.o)

.debug_str      0x00000000      0xba0
 .debug_str     0x00000000      0x128 C:/MinGW-4.7.1/or1k-elf/lib/no-delay\libc.a(lib_a-memcmp.o)
                                0x161 (size before relaxing)
 .debug_str     0x00000128       0x71 C:/MinGW-4.7.1/or1k-elf/lib/no-delay\libc.a(lib_a-memcpy.o)
                                0x188 (size before relaxing)
 .debug_str     0x00000199       0x65 C:/MinGW-4.7.1/or1k-elf/lib/no-delay\libc.a(lib_a-memmove.o)
                                0x194 (size before relaxing)
 .debug_str     0x000001fe       0x5e C:/MinGW-4.7.1/or1k-elf/lib/no-delay\libc.a(lib_a-memset.o)
                                0x175 (size before relaxing)
 .debug_str     0x0000025c       0x6a C:/MinGW-4.7.1/or1k-elf/lib/no-delay\libc.a(lib_a-strcasecmp.o)
                                0x17a (size before relaxing)
 .debug_str     0x000002c6       0x5c C:/MinGW-4.7.1/or1k-elf/lib/no-delay\libc.a(lib_a-strcat.o)
                                0x16c (size before relaxing)
 .debug_str     0x00000322       0x4f C:/MinGW-4.7.1/or1k-elf/lib/no-delay\libc.a(lib_a-strchr.o)
                                0x16c (size before relaxing)
 .debug_str     0x00000371       0x4a C:/MinGW-4.7.1/or1k-elf/lib/no-delay\libc.a(lib_a-strcmp.o)
                                0x15a (size before relaxing)
 .debug_str     0x000003bb       0x43 C:/MinGW-4.7.1/or1k-elf/lib/no-delay\libc.a(lib_a-strcpy.o)
                                0x17c (size before relaxing)
 .debug_str     0x000003fe       0x50 C:/MinGW-4.7.1/or1k-elf/lib/no-delay\libc.a(lib_a-strlen.o)
                                0x174 (size before relaxing)
 .debug_str     0x0000044e       0x4c C:/MinGW-4.7.1/or1k-elf/lib/no-delay\libc.a(lib_a-strncmp.o)
                                0x163 (size before relaxing)
 .debug_str     0x0000049a       0xf7 C:/MinGW-4.7.1/or1k-elf/lib/no-delay\libc.a(lib_a-strstr.o)
                                0x230 (size before relaxing)
 .debug_str     0x00000591       0x9c C:/MinGW-4.7.1/or1k-elf/lib/no-delay\libc.a(lib_a-ctype_.o)
                                 0xec (size before relaxing)
 .debug_str     0x0000062d       0x48 C:/MinGW-4.7.1/or1k-elf/lib/no-delay\libc.a(lib_a-memchr.o)
                                0x17b (size before relaxing)
 .debug_str     0x00000675      0x146 C:/MinGW-4.7.1/lib/gcc/or1k-elf/4.9.1/no-delay\libgcc.a(_muldi3.o)
                                0x1e5 (size before relaxing)
 .debug_str     0x000007bb       0xe7 C:/MinGW-4.7.1/lib/gcc/or1k-elf/4.9.1/no-delay\libgcc.a(_udivdi3.o)
                                0x25c (size before relaxing)
 .debug_str     0x000008a2       0xbf C:/MinGW-4.7.1/lib/gcc/or1k-elf/4.9.1/no-delay\libgcc.a(addsf3.o)
                                0x1ef (size before relaxing)
 .debug_str     0x00000961       0x67 C:/MinGW-4.7.1/lib/gcc/or1k-elf/4.9.1/no-delay\libgcc.a(divsf3.o)
                                0x1be (size before relaxing)
 .debug_str     0x000009c8       0x3d C:/MinGW-4.7.1/lib/gcc/or1k-elf/4.9.1/no-delay\libgcc.a(eqsf2.o)
                                0x194 (size before relaxing)
 .debug_str     0x00000a05       0x55 C:/MinGW-4.7.1/lib/gcc/or1k-elf/4.9.1/no-delay\libgcc.a(gesf2.o)
                                0x1ac (size before relaxing)
 .debug_str     0x00000a5a       0x53 C:/MinGW-4.7.1/lib/gcc/or1k-elf/4.9.1/no-delay\libgcc.a(mulsf3.o)
                                0x1f4 (size before relaxing)
 .debug_str     0x00000aad       0x4f C:/MinGW-4.7.1/lib/gcc/or1k-elf/4.9.1/no-delay\libgcc.a(fixunssfsi.o)
                                0x1ae (size before relaxing)
 .debug_str     0x00000afc       0x52 C:/MinGW-4.7.1/lib/gcc/or1k-elf/4.9.1/no-delay\libgcc.a(floatsisf.o)
                                0x1d1 (size before relaxing)
 .debug_str     0x00000b4e       0x49 C:/MinGW-4.7.1/lib/gcc/or1k-elf/4.9.1/no-delay\libgcc.a(floatunsisf.o)
                                0x1ce (size before relaxing)
 .debug_str     0x00000000      0x1a3 C:/MinGW-4.7.1/lib/gcc/or1k-elf/4.9.1/no-delay\libgcc.a(_clz.o)
 .debug_str     0x00000b97        0x9 C:/MinGW-4.7.1/lib/gcc/or1k-elf/4.9.1/no-delay\libgcc.a(_clzsi2.o)
                                0x1c0 (size before relaxing)

.debug_frame    0x00000000      0x440
 .debug_frame   0x00000000       0x28 C:/MinGW-4.7.1/or1k-elf/lib/no-delay\libc.a(lib_a-memcmp.o)
 .debug_frame   0x00000028       0x28 C:/MinGW-4.7.1/or1k-elf/lib/no-delay\libc.a(lib_a-memcpy.o)
 .debug_frame   0x00000050       0x28 C:/MinGW-4.7.1/or1k-elf/lib/no-delay\libc.a(lib_a-memmove.o)
 .debug_frame   0x00000078       0x28 C:/MinGW-4.7.1/or1k-elf/lib/no-delay\libc.a(lib_a-memset.o)
 .debug_frame   0x000000a0       0x28 C:/MinGW-4.7.1/or1k-elf/lib/no-delay\libc.a(lib_a-strcasecmp.o)
 .debug_frame   0x000000c8       0x2c C:/MinGW-4.7.1/or1k-elf/lib/no-delay\libc.a(lib_a-strcat.o)
 .debug_frame   0x000000f4       0x28 C:/MinGW-4.7.1/or1k-elf/lib/no-delay\libc.a(lib_a-strchr.o)
 .debug_frame   0x0000011c       0x28 C:/MinGW-4.7.1/or1k-elf/lib/no-delay\libc.a(lib_a-strcmp.o)
 .debug_frame   0x00000144       0x28 C:/MinGW-4.7.1/or1k-elf/lib/no-delay\libc.a(lib_a-strcpy.o)
 .debug_frame   0x0000016c       0x28 C:/MinGW-4.7.1/or1k-elf/lib/no-delay\libc.a(lib_a-strlen.o)
 .debug_frame   0x00000194       0x28 C:/MinGW-4.7.1/or1k-elf/lib/no-delay\libc.a(lib_a-strncmp.o)
 .debug_frame   0x000001bc       0x80 C:/MinGW-4.7.1/or1k-elf/lib/no-delay\libc.a(lib_a-strstr.o)
 .debug_frame   0x0000023c       0x28 C:/MinGW-4.7.1/or1k-elf/lib/no-delay\libc.a(lib_a-memchr.o)
 .debug_frame   0x00000264       0x28 C:/MinGW-4.7.1/lib/gcc/or1k-elf/4.9.1/no-delay\libgcc.a(_muldi3.o)
 .debug_frame   0x0000028c       0x30 C:/MinGW-4.7.1/lib/gcc/or1k-elf/4.9.1/no-delay\libgcc.a(addsf3.o)
 .debug_frame   0x000002bc       0x3c C:/MinGW-4.7.1/lib/gcc/or1k-elf/4.9.1/no-delay\libgcc.a(divsf3.o)
 .debug_frame   0x000002f8       0x2c C:/MinGW-4.7.1/lib/gcc/or1k-elf/4.9.1/no-delay\libgcc.a(eqsf2.o)
 .debug_frame   0x00000324       0x2c C:/MinGW-4.7.1/lib/gcc/or1k-elf/4.9.1/no-delay\libgcc.a(gesf2.o)
 .debug_frame   0x00000350       0x3c C:/MinGW-4.7.1/lib/gcc/or1k-elf/4.9.1/no-delay\libgcc.a(mulsf3.o)
 .debug_frame   0x0000038c       0x2c C:/MinGW-4.7.1/lib/gcc/or1k-elf/4.9.1/no-delay\libgcc.a(fixunssfsi.o)
 .debug_frame   0x000003b8       0x30 C:/MinGW-4.7.1/lib/gcc/or1k-elf/4.9.1/no-delay\libgcc.a(floatsisf.o)
 .debug_frame   0x000003e8       0x2c C:/MinGW-4.7.1/lib/gcc/or1k-elf/4.9.1/no-delay\libgcc.a(floatunsisf.o)
 .debug_frame   0x00000414       0x2c C:/MinGW-4.7.1/lib/gcc/or1k-elf/4.9.1/no-delay\libgcc.a(_clzsi2.o)

.debug_ranges   0x00000000      0x7c8
 .debug_ranges  0x00000000       0x48 C:/MinGW-4.7.1/or1k-elf/lib/no-delay\libc.a(lib_a-strcasecmp.o)
 .debug_ranges  0x00000048       0x80 C:/MinGW-4.7.1/or1k-elf/lib/no-delay\libc.a(lib_a-strstr.o)
 .debug_ranges  0x000000c8       0x38 C:/MinGW-4.7.1/lib/gcc/or1k-elf/4.9.1/no-delay\libgcc.a(_muldi3.o)
 .debug_ranges  0x00000100      0x180 C:/MinGW-4.7.1/lib/gcc/or1k-elf/4.9.1/no-delay\libgcc.a(_udivdi3.o)
 .debug_ranges  0x00000280      0x1b8 C:/MinGW-4.7.1/lib/gcc/or1k-elf/4.9.1/no-delay\libgcc.a(addsf3.o)
 .debug_ranges  0x00000438       0xc0 C:/MinGW-4.7.1/lib/gcc/or1k-elf/4.9.1/no-delay\libgcc.a(divsf3.o)
 .debug_ranges  0x000004f8       0x50 C:/MinGW-4.7.1/lib/gcc/or1k-elf/4.9.1/no-delay\libgcc.a(eqsf2.o)
 .debug_ranges  0x00000548       0x80 C:/MinGW-4.7.1/lib/gcc/or1k-elf/4.9.1/no-delay\libgcc.a(gesf2.o)
 .debug_ranges  0x000005c8       0xc0 C:/MinGW-4.7.1/lib/gcc/or1k-elf/4.9.1/no-delay\libgcc.a(mulsf3.o)
 .debug_ranges  0x00000688       0x30 C:/MinGW-4.7.1/lib/gcc/or1k-elf/4.9.1/no-delay\libgcc.a(fixunssfsi.o)
 .debug_ranges  0x000006b8       0x80 C:/MinGW-4.7.1/lib/gcc/or1k-elf/4.9.1/no-delay\libgcc.a(floatsisf.o)
 .debug_ranges  0x00000738       0x58 C:/MinGW-4.7.1/lib/gcc/or1k-elf/4.9.1/no-delay\libgcc.a(floatunsisf.o)
 .debug_ranges  0x00000790       0x38 C:/MinGW-4.7.1/lib/gcc/or1k-elf/4.9.1/no-delay\libgcc.a(_clzsi2.o)
